
crackme_9822183:     file format elf32-i386


Disassembly of section .text:

000004d0 <.text>:
     4d0:	31 ed                	xor    ebp,ebp
     4d2:	5e                   	pop    esi
     4d3:	89 e1                	mov    ecx,esp
     4d5:	83 e4 f0             	and    esp,0xfffffff0
     4d8:	50                   	push   eax
     4d9:	54                   	push   esp
     4da:	52                   	push   edx
     4db:	e8 22 00 00 00       	call   502 <__gmon_start__@plt+0x3a>
     4e0:	81 c3 e8 7a 01 00    	add    ebx,0x17ae8
     4e6:	8d 83 48 4a ff ff    	lea    eax,[ebx-0xb5b8]
     4ec:	50                   	push   eax
     4ed:	8d 83 e8 49 ff ff    	lea    eax,[ebx-0xb618]
     4f3:	50                   	push   eax
     4f4:	51                   	push   ecx
     4f5:	56                   	push   esi
     4f6:	ff b3 30 00 00 00    	push   DWORD PTR [ebx+0x30]
     4fc:	e8 9f ff ff ff       	call   4a0 <__libc_start_main@plt>
     501:	f4                   	hlt    
     502:	8b 1c 24             	mov    ebx,DWORD PTR [esp]
     505:	c3                   	ret    
     506:	66 90                	xchg   ax,ax
     508:	66 90                	xchg   ax,ax
     50a:	66 90                	xchg   ax,ax
     50c:	66 90                	xchg   ax,ax
     50e:	66 90                	xchg   ax,ax
     510:	8b 1c 24             	mov    ebx,DWORD PTR [esp]
     513:	c3                   	ret    
     514:	66 90                	xchg   ax,ax
     516:	66 90                	xchg   ax,ax
     518:	66 90                	xchg   ax,ax
     51a:	66 90                	xchg   ax,ax
     51c:	66 90                	xchg   ax,ax
     51e:	66 90                	xchg   ax,ax
     520:	e8 e4 00 00 00       	call   609 <__gmon_start__@plt+0x141>
     525:	81 c2 a3 7a 01 00    	add    edx,0x17aa3
     52b:	8d 8a 40 00 00 00    	lea    ecx,[edx+0x40]
     531:	8d 82 40 00 00 00    	lea    eax,[edx+0x40]
     537:	39 c8                	cmp    eax,ecx
     539:	74 1d                	je     558 <__gmon_start__@plt+0x90>
     53b:	8b 82 24 00 00 00    	mov    eax,DWORD PTR [edx+0x24]
     541:	85 c0                	test   eax,eax
     543:	74 13                	je     558 <__gmon_start__@plt+0x90>
     545:	55                   	push   ebp
     546:	89 e5                	mov    ebp,esp
     548:	83 ec 14             	sub    esp,0x14
     54b:	51                   	push   ecx
     54c:	ff d0                	call   eax
     54e:	83 c4 10             	add    esp,0x10
     551:	c9                   	leave  
     552:	c3                   	ret    
     553:	90                   	nop
     554:	8d 74 26 00          	lea    esi,[esi+eiz*1+0x0]
     558:	f3 c3                	repz ret 
     55a:	8d b6 00 00 00 00    	lea    esi,[esi+0x0]
     560:	e8 a4 00 00 00       	call   609 <__gmon_start__@plt+0x141>
     565:	81 c2 63 7a 01 00    	add    edx,0x17a63
     56b:	55                   	push   ebp
     56c:	8d 8a 40 00 00 00    	lea    ecx,[edx+0x40]
     572:	8d 82 40 00 00 00    	lea    eax,[edx+0x40]
     578:	29 c8                	sub    eax,ecx
     57a:	89 e5                	mov    ebp,esp
     57c:	53                   	push   ebx
     57d:	c1 f8 02             	sar    eax,0x2
     580:	89 c3                	mov    ebx,eax
     582:	83 ec 04             	sub    esp,0x4
     585:	c1 eb 1f             	shr    ebx,0x1f
     588:	01 d8                	add    eax,ebx
     58a:	d1 f8                	sar    eax,1
     58c:	74 14                	je     5a2 <__gmon_start__@plt+0xda>
     58e:	8b 92 34 00 00 00    	mov    edx,DWORD PTR [edx+0x34]
     594:	85 d2                	test   edx,edx
     596:	74 0a                	je     5a2 <__gmon_start__@plt+0xda>
     598:	83 ec 08             	sub    esp,0x8
     59b:	50                   	push   eax
     59c:	51                   	push   ecx
     59d:	ff d2                	call   edx
     59f:	83 c4 10             	add    esp,0x10
     5a2:	8b 5d fc             	mov    ebx,DWORD PTR [ebp-0x4]
     5a5:	c9                   	leave  
     5a6:	c3                   	ret    
     5a7:	89 f6                	mov    esi,esi
     5a9:	8d bc 27 00 00 00 00 	lea    edi,[edi+eiz*1+0x0]
     5b0:	55                   	push   ebp
     5b1:	89 e5                	mov    ebp,esp
     5b3:	53                   	push   ebx
     5b4:	e8 57 ff ff ff       	call   510 <__gmon_start__@plt+0x48>
     5b9:	81 c3 0f 7a 01 00    	add    ebx,0x17a0f
     5bf:	83 ec 04             	sub    esp,0x4
     5c2:	80 bb 40 00 00 00 00 	cmp    BYTE PTR [ebx+0x40],0x0
     5c9:	75 27                	jne    5f2 <__gmon_start__@plt+0x12a>
     5cb:	8b 83 28 00 00 00    	mov    eax,DWORD PTR [ebx+0x28]
     5d1:	85 c0                	test   eax,eax
     5d3:	74 11                	je     5e6 <__gmon_start__@plt+0x11e>
     5d5:	83 ec 0c             	sub    esp,0xc
     5d8:	ff b3 3c 00 00 00    	push   DWORD PTR [ebx+0x3c]
     5de:	e8 dd fe ff ff       	call   4c0 <__cxa_finalize@plt>
     5e3:	83 c4 10             	add    esp,0x10
     5e6:	e8 35 ff ff ff       	call   520 <__gmon_start__@plt+0x58>
     5eb:	c6 83 40 00 00 00 01 	mov    BYTE PTR [ebx+0x40],0x1
     5f2:	8b 5d fc             	mov    ebx,DWORD PTR [ebp-0x4]
     5f5:	c9                   	leave  
     5f6:	c3                   	ret    
     5f7:	89 f6                	mov    esi,esi
     5f9:	8d bc 27 00 00 00 00 	lea    edi,[edi+eiz*1+0x0]
     600:	55                   	push   ebp
     601:	89 e5                	mov    ebp,esp
     603:	5d                   	pop    ebp
     604:	e9 57 ff ff ff       	jmp    560 <__gmon_start__@plt+0x98>
     609:	8b 14 24             	mov    edx,DWORD PTR [esp]
     60c:	c3                   	ret    
     60d:	55                   	push   ebp
     60e:	89 e5                	mov    ebp,esp
     610:	83 ec 10             	sub    esp,0x10
     613:	e8 c9 01 00 00       	call   7e1 <__gmon_start__@plt+0x319>
     618:	05 b0 79 01 00       	add    eax,0x179b0
     61d:	8b 45 08             	mov    eax,DWORD PTR [ebp+0x8]
     620:	89 45 fc             	mov    DWORD PTR [ebp-0x4],eax
     623:	eb 04                	jmp    629 <__gmon_start__@plt+0x161>
     625:	83 45 fc 01          	add    DWORD PTR [ebp-0x4],0x1
     629:	8b 45 fc             	mov    eax,DWORD PTR [ebp-0x4]
     62c:	0f b6 00             	movzx  eax,BYTE PTR [eax]
     62f:	84 c0                	test   al,al
     631:	75 f2                	jne    625 <__gmon_start__@plt+0x15d>
     633:	83 6d fc 01          	sub    DWORD PTR [ebp-0x4],0x1
     637:	eb 41                	jmp    67a <__gmon_start__@plt+0x1b2>
     639:	8b 45 08             	mov    eax,DWORD PTR [ebp+0x8]
     63c:	0f b6 10             	movzx  edx,BYTE PTR [eax]
     63f:	8b 45 fc             	mov    eax,DWORD PTR [ebp-0x4]
     642:	0f b6 00             	movzx  eax,BYTE PTR [eax]
     645:	31 c2                	xor    edx,eax
     647:	8b 45 08             	mov    eax,DWORD PTR [ebp+0x8]
     64a:	88 10                	mov    BYTE PTR [eax],dl
     64c:	8b 45 fc             	mov    eax,DWORD PTR [ebp-0x4]
     64f:	0f b6 10             	movzx  edx,BYTE PTR [eax]
     652:	8b 45 08             	mov    eax,DWORD PTR [ebp+0x8]
     655:	0f b6 00             	movzx  eax,BYTE PTR [eax]
     658:	31 c2                	xor    edx,eax
     65a:	8b 45 fc             	mov    eax,DWORD PTR [ebp-0x4]
     65d:	88 10                	mov    BYTE PTR [eax],dl
     65f:	8b 45 08             	mov    eax,DWORD PTR [ebp+0x8]
     662:	0f b6 10             	movzx  edx,BYTE PTR [eax]
     665:	8b 45 fc             	mov    eax,DWORD PTR [ebp-0x4]
     668:	0f b6 00             	movzx  eax,BYTE PTR [eax]
     66b:	31 c2                	xor    edx,eax
     66d:	8b 45 08             	mov    eax,DWORD PTR [ebp+0x8]
     670:	88 10                	mov    BYTE PTR [eax],dl
     672:	83 45 08 01          	add    DWORD PTR [ebp+0x8],0x1
     676:	83 6d fc 01          	sub    DWORD PTR [ebp-0x4],0x1
     67a:	8b 45 08             	mov    eax,DWORD PTR [ebp+0x8]
     67d:	3b 45 fc             	cmp    eax,DWORD PTR [ebp-0x4]
     680:	72 b7                	jb     639 <__gmon_start__@plt+0x171>
     682:	90                   	nop
     683:	c9                   	leave  
     684:	c3                   	ret    
     685:	55                   	push   ebp
     686:	89 e5                	mov    ebp,esp
     688:	83 ec 10             	sub    esp,0x10
     68b:	e8 51 01 00 00       	call   7e1 <__gmon_start__@plt+0x319>
     690:	05 38 79 01 00       	add    eax,0x17938
     695:	ff 75 08             	push   DWORD PTR [ebp+0x8]
     698:	e8 70 ff ff ff       	call   60d <__gmon_start__@plt+0x145>
     69d:	83 c4 04             	add    esp,0x4
     6a0:	8b 45 08             	mov    eax,DWORD PTR [ebp+0x8]
     6a3:	0f b6 00             	movzx  eax,BYTE PTR [eax]
     6a6:	83 c0 01             	add    eax,0x1
     6a9:	89 c2                	mov    edx,eax
     6ab:	8b 45 08             	mov    eax,DWORD PTR [ebp+0x8]
     6ae:	88 10                	mov    BYTE PTR [eax],dl
     6b0:	c7 45 fc 01 00 00 00 	mov    DWORD PTR [ebp-0x4],0x1
     6b7:	eb 5a                	jmp    713 <__gmon_start__@plt+0x24b>
     6b9:	8b 45 fc             	mov    eax,DWORD PTR [ebp-0x4]
     6bc:	8d 50 ff             	lea    edx,[eax-0x1]
     6bf:	8b 45 08             	mov    eax,DWORD PTR [ebp+0x8]
     6c2:	01 d0                	add    eax,edx
     6c4:	0f b6 00             	movzx  eax,BYTE PTR [eax]
     6c7:	0f be d0             	movsx  edx,al
     6ca:	8b 4d fc             	mov    ecx,DWORD PTR [ebp-0x4]
     6cd:	8b 45 08             	mov    eax,DWORD PTR [ebp+0x8]
     6d0:	01 c8                	add    eax,ecx
     6d2:	0f b6 00             	movzx  eax,BYTE PTR [eax]
     6d5:	0f be c0             	movsx  eax,al
     6d8:	8d 0c 02             	lea    ecx,[edx+eax*1]
     6db:	ba 09 04 02 81       	mov    edx,0x81020409
     6e0:	89 c8                	mov    eax,ecx
     6e2:	f7 ea                	imul   edx
     6e4:	8d 04 0a             	lea    eax,[edx+ecx*1]
     6e7:	c1 f8 06             	sar    eax,0x6
     6ea:	89 c2                	mov    edx,eax
     6ec:	89 c8                	mov    eax,ecx
     6ee:	c1 f8 1f             	sar    eax,0x1f
     6f1:	29 c2                	sub    edx,eax
     6f3:	89 d0                	mov    eax,edx
     6f5:	89 c2                	mov    edx,eax
     6f7:	c1 e2 07             	shl    edx,0x7
     6fa:	29 c2                	sub    edx,eax
     6fc:	89 c8                	mov    eax,ecx
     6fe:	29 d0                	sub    eax,edx
     700:	8d 48 01             	lea    ecx,[eax+0x1]
     703:	8b 55 fc             	mov    edx,DWORD PTR [ebp-0x4]
     706:	8b 45 08             	mov    eax,DWORD PTR [ebp+0x8]
     709:	01 d0                	add    eax,edx
     70b:	89 ca                	mov    edx,ecx
     70d:	88 10                	mov    BYTE PTR [eax],dl
     70f:	83 45 fc 01          	add    DWORD PTR [ebp-0x4],0x1
     713:	8b 55 fc             	mov    edx,DWORD PTR [ebp-0x4]
     716:	8b 45 08             	mov    eax,DWORD PTR [ebp+0x8]
     719:	01 d0                	add    eax,edx
     71b:	0f b6 00             	movzx  eax,BYTE PTR [eax]
     71e:	84 c0                	test   al,al
     720:	75 97                	jne    6b9 <__gmon_start__@plt+0x1f1>
     722:	90                   	nop
     723:	c9                   	leave  
     724:	c3                   	ret    
     725:	55                   	push   ebp
     726:	89 e5                	mov    ebp,esp
     728:	83 ec 10             	sub    esp,0x10
     72b:	e8 b1 00 00 00       	call   7e1 <__gmon_start__@plt+0x319>
     730:	05 98 78 01 00       	add    eax,0x17898
     735:	c7 45 fc 01 00 00 00 	mov    DWORD PTR [ebp-0x4],0x1
     73c:	eb 04                	jmp    742 <__gmon_start__@plt+0x27a>
     73e:	83 45 fc 01          	add    DWORD PTR [ebp-0x4],0x1
     742:	8b 55 fc             	mov    edx,DWORD PTR [ebp-0x4]
     745:	8b 45 08             	mov    eax,DWORD PTR [ebp+0x8]
     748:	01 d0                	add    eax,edx
     74a:	0f b6 00             	movzx  eax,BYTE PTR [eax]
     74d:	84 c0                	test   al,al
     74f:	75 ed                	jne    73e <__gmon_start__@plt+0x276>
     751:	83 6d fc 01          	sub    DWORD PTR [ebp-0x4],0x1
     755:	eb 66                	jmp    7bd <__gmon_start__@plt+0x2f5>
     757:	8b 55 fc             	mov    edx,DWORD PTR [ebp-0x4]
     75a:	8b 45 08             	mov    eax,DWORD PTR [ebp+0x8]
     75d:	01 d0                	add    eax,edx
     75f:	0f b6 00             	movzx  eax,BYTE PTR [eax]
     762:	89 c1                	mov    ecx,eax
     764:	8b 45 fc             	mov    eax,DWORD PTR [ebp-0x4]
     767:	8d 50 ff             	lea    edx,[eax-0x1]
     76a:	8b 45 08             	mov    eax,DWORD PTR [ebp+0x8]
     76d:	01 d0                	add    eax,edx
     76f:	0f b6 00             	movzx  eax,BYTE PTR [eax]
     772:	29 c1                	sub    ecx,eax
     774:	89 c8                	mov    eax,ecx
     776:	8d 48 ff             	lea    ecx,[eax-0x1]
     779:	8b 55 fc             	mov    edx,DWORD PTR [ebp-0x4]
     77c:	8b 45 08             	mov    eax,DWORD PTR [ebp+0x8]
     77f:	01 d0                	add    eax,edx
     781:	89 ca                	mov    edx,ecx
     783:	88 10                	mov    BYTE PTR [eax],dl
     785:	8b 55 fc             	mov    edx,DWORD PTR [ebp-0x4]
     788:	8b 45 08             	mov    eax,DWORD PTR [ebp+0x8]
     78b:	01 d0                	add    eax,edx
     78d:	0f b6 00             	movzx  eax,BYTE PTR [eax]
     790:	84 c0                	test   al,al
     792:	7e 0d                	jle    7a1 <__gmon_start__@plt+0x2d9>
     794:	8b 55 fc             	mov    edx,DWORD PTR [ebp-0x4]
     797:	8b 45 08             	mov    eax,DWORD PTR [ebp+0x8]
     79a:	01 d0                	add    eax,edx
     79c:	0f b6 00             	movzx  eax,BYTE PTR [eax]
     79f:	eb 0e                	jmp    7af <__gmon_start__@plt+0x2e7>
     7a1:	8b 55 fc             	mov    edx,DWORD PTR [ebp-0x4]
     7a4:	8b 45 08             	mov    eax,DWORD PTR [ebp+0x8]
     7a7:	01 d0                	add    eax,edx
     7a9:	0f b6 00             	movzx  eax,BYTE PTR [eax]
     7ac:	83 c0 7f             	add    eax,0x7f
     7af:	8b 4d fc             	mov    ecx,DWORD PTR [ebp-0x4]
     7b2:	8b 55 08             	mov    edx,DWORD PTR [ebp+0x8]
     7b5:	01 ca                	add    edx,ecx
     7b7:	88 02                	mov    BYTE PTR [edx],al
     7b9:	83 6d fc 01          	sub    DWORD PTR [ebp-0x4],0x1
     7bd:	83 7d fc 00          	cmp    DWORD PTR [ebp-0x4],0x0
     7c1:	7f 94                	jg     757 <__gmon_start__@plt+0x28f>
     7c3:	8b 45 08             	mov    eax,DWORD PTR [ebp+0x8]
     7c6:	0f b6 00             	movzx  eax,BYTE PTR [eax]
     7c9:	83 e8 01             	sub    eax,0x1
     7cc:	89 c2                	mov    edx,eax
     7ce:	8b 45 08             	mov    eax,DWORD PTR [ebp+0x8]
     7d1:	88 10                	mov    BYTE PTR [eax],dl
     7d3:	ff 75 08             	push   DWORD PTR [ebp+0x8]
     7d6:	e8 32 fe ff ff       	call   60d <__gmon_start__@plt+0x145>
     7db:	83 c4 04             	add    esp,0x4
     7de:	90                   	nop
     7df:	c9                   	leave  
     7e0:	c3                   	ret    
     7e1:	8b 04 24             	mov    eax,DWORD PTR [esp]
     7e4:	c3                   	ret    
     7e5:	55                   	push   ebp
     7e6:	89 e5                	mov    ebp,esp
     7e8:	83 ec 10             	sub    esp,0x10
     7eb:	e8 f1 ff ff ff       	call   7e1 <__gmon_start__@plt+0x319>
     7f0:	05 d8 77 01 00       	add    eax,0x177d8
     7f5:	c7 45 fc 00 00 00 00 	mov    DWORD PTR [ebp-0x4],0x0
     7fc:	eb 0a                	jmp    808 <__gmon_start__@plt+0x340>
     7fe:	87 f6                	xchg   esi,esi
     800:	87 d2                	xchg   edx,edx
     802:	87 d2                	xchg   edx,edx
     804:	83 45 fc 01          	add    DWORD PTR [ebp-0x4],0x1
     808:	83 7d fc 14          	cmp    DWORD PTR [ebp-0x4],0x14
     80c:	7e f0                	jle    7fe <__gmon_start__@plt+0x336>
     80e:	90                   	nop
     80f:	c9                   	leave  
     810:	c3                   	ret    
     811:	55                   	push   ebp
     812:	89 e5                	mov    ebp,esp
     814:	83 ec 10             	sub    esp,0x10
     817:	e8 c5 ff ff ff       	call   7e1 <__gmon_start__@plt+0x319>
     81c:	05 ac 77 01 00       	add    eax,0x177ac
     821:	c7 45 fc 00 00 00 00 	mov    DWORD PTR [ebp-0x4],0x0
     828:	eb 08                	jmp    832 <__gmon_start__@plt+0x36a>
     82a:	87 d2                	xchg   edx,edx
     82c:	87 ff                	xchg   edi,edi
     82e:	83 45 fc 01          	add    DWORD PTR [ebp-0x4],0x1
     832:	83 7d fc 07          	cmp    DWORD PTR [ebp-0x4],0x7
     836:	7e f2                	jle    82a <__gmon_start__@plt+0x362>
     838:	90                   	nop
     839:	c9                   	leave  
     83a:	c3                   	ret    
     83b:	55                   	push   ebp
     83c:	89 e5                	mov    ebp,esp
     83e:	83 ec 10             	sub    esp,0x10
     841:	e8 9b ff ff ff       	call   7e1 <__gmon_start__@plt+0x319>
     846:	05 82 77 01 00       	add    eax,0x17782
     84b:	c7 45 fc 00 00 00 00 	mov    DWORD PTR [ebp-0x4],0x0
     852:	eb 13                	jmp    867 <__gmon_start__@plt+0x39f>
     854:	90                   	nop
     855:	87 ff                	xchg   edi,edi
     857:	87 c9                	xchg   ecx,ecx
     859:	90                   	nop
     85a:	87 ff                	xchg   edi,edi
     85c:	87 ff                	xchg   edi,edi
     85e:	90                   	nop
     85f:	90                   	nop
     860:	87 db                	xchg   ebx,ebx
     862:	90                   	nop
     863:	83 45 fc 01          	add    DWORD PTR [ebp-0x4],0x1
     867:	83 7d fc 0c          	cmp    DWORD PTR [ebp-0x4],0xc
     86b:	7e e7                	jle    854 <__gmon_start__@plt+0x38c>
     86d:	90                   	nop
     86e:	c9                   	leave  
     86f:	c3                   	ret    
     870:	55                   	push   ebp
     871:	89 e5                	mov    ebp,esp
     873:	83 ec 10             	sub    esp,0x10
     876:	e8 66 ff ff ff       	call   7e1 <__gmon_start__@plt+0x319>
     87b:	05 4d 77 01 00       	add    eax,0x1774d
     880:	c7 45 fc 00 00 00 00 	mov    DWORD PTR [ebp-0x4],0x0
     887:	eb 14                	jmp    89d <__gmon_start__@plt+0x3d5>
     889:	87 d2                	xchg   edx,edx
     88b:	87 d2                	xchg   edx,edx
     88d:	90                   	nop
     88e:	90                   	nop
     88f:	87 db                	xchg   ebx,ebx
     891:	87 d2                	xchg   edx,edx
     893:	90                   	nop
     894:	90                   	nop
     895:	87 db                	xchg   ebx,ebx
     897:	90                   	nop
     898:	90                   	nop
     899:	83 45 fc 01          	add    DWORD PTR [ebp-0x4],0x1
     89d:	83 7d fc 0b          	cmp    DWORD PTR [ebp-0x4],0xb
     8a1:	7e e6                	jle    889 <__gmon_start__@plt+0x3c1>
     8a3:	90                   	nop
     8a4:	c9                   	leave  
     8a5:	c3                   	ret    
     8a6:	55                   	push   ebp
     8a7:	89 e5                	mov    ebp,esp
     8a9:	83 ec 10             	sub    esp,0x10
     8ac:	e8 30 ff ff ff       	call   7e1 <__gmon_start__@plt+0x319>
     8b1:	05 17 77 01 00       	add    eax,0x17717
     8b6:	c7 45 fc 00 00 00 00 	mov    DWORD PTR [ebp-0x4],0x0
     8bd:	eb 0b                	jmp    8ca <__gmon_start__@plt+0x402>
     8bf:	87 ff                	xchg   edi,edi
     8c1:	87 c9                	xchg   ecx,ecx
     8c3:	90                   	nop
     8c4:	87 f6                	xchg   esi,esi
     8c6:	83 45 fc 01          	add    DWORD PTR [ebp-0x4],0x1
     8ca:	83 7d fc 06          	cmp    DWORD PTR [ebp-0x4],0x6
     8ce:	7e ef                	jle    8bf <__gmon_start__@plt+0x3f7>
     8d0:	90                   	nop
     8d1:	c9                   	leave  
     8d2:	c3                   	ret    
     8d3:	55                   	push   ebp
     8d4:	89 e5                	mov    ebp,esp
     8d6:	83 ec 10             	sub    esp,0x10
     8d9:	e8 03 ff ff ff       	call   7e1 <__gmon_start__@plt+0x319>
     8de:	05 ea 76 01 00       	add    eax,0x176ea
     8e3:	c7 45 fc 00 00 00 00 	mov    DWORD PTR [ebp-0x4],0x0
     8ea:	eb 15                	jmp    901 <__gmon_start__@plt+0x439>
     8ec:	87 ff                	xchg   edi,edi
     8ee:	90                   	nop
     8ef:	87 d2                	xchg   edx,edx
     8f1:	87 db                	xchg   ebx,ebx
     8f3:	87 d2                	xchg   edx,edx
     8f5:	90                   	nop
     8f6:	90                   	nop
     8f7:	87 c9                	xchg   ecx,ecx
     8f9:	87 d2                	xchg   edx,edx
     8fb:	90                   	nop
     8fc:	90                   	nop
     8fd:	83 45 fc 01          	add    DWORD PTR [ebp-0x4],0x1
     901:	83 7d fc 00          	cmp    DWORD PTR [ebp-0x4],0x0
     905:	7e e5                	jle    8ec <__gmon_start__@plt+0x424>
     907:	90                   	nop
     908:	c9                   	leave  
     909:	c3                   	ret    
     90a:	55                   	push   ebp
     90b:	89 e5                	mov    ebp,esp
     90d:	83 ec 10             	sub    esp,0x10
     910:	e8 cc fe ff ff       	call   7e1 <__gmon_start__@plt+0x319>
     915:	05 b3 76 01 00       	add    eax,0x176b3
     91a:	c7 45 fc 00 00 00 00 	mov    DWORD PTR [ebp-0x4],0x0
     921:	eb 14                	jmp    937 <__gmon_start__@plt+0x46f>
     923:	87 d2                	xchg   edx,edx
     925:	87 d2                	xchg   edx,edx
     927:	87 f6                	xchg   esi,esi
     929:	90                   	nop
     92a:	87 db                	xchg   ebx,ebx
     92c:	87 f6                	xchg   esi,esi
     92e:	87 d2                	xchg   edx,edx
     930:	87 f6                	xchg   esi,esi
     932:	90                   	nop
     933:	83 45 fc 01          	add    DWORD PTR [ebp-0x4],0x1
     937:	83 7d fc 04          	cmp    DWORD PTR [ebp-0x4],0x4
     93b:	7e e6                	jle    923 <__gmon_start__@plt+0x45b>
     93d:	90                   	nop
     93e:	c9                   	leave  
     93f:	c3                   	ret    
     940:	55                   	push   ebp
     941:	89 e5                	mov    ebp,esp
     943:	83 ec 10             	sub    esp,0x10
     946:	e8 96 fe ff ff       	call   7e1 <__gmon_start__@plt+0x319>
     94b:	05 7d 76 01 00       	add    eax,0x1767d
     950:	c7 45 fc 00 00 00 00 	mov    DWORD PTR [ebp-0x4],0x0
     957:	eb 16                	jmp    96f <__gmon_start__@plt+0x4a7>
     959:	87 ff                	xchg   edi,edi
     95b:	87 ff                	xchg   edi,edi
     95d:	87 d2                	xchg   edx,edx
     95f:	87 db                	xchg   ebx,ebx
     961:	90                   	nop
     962:	87 c9                	xchg   ecx,ecx
     964:	90                   	nop
     965:	87 db                	xchg   ebx,ebx
     967:	90                   	nop
     968:	87 d2                	xchg   edx,edx
     96a:	90                   	nop
     96b:	83 45 fc 01          	add    DWORD PTR [ebp-0x4],0x1
     96f:	83 7d fc 13          	cmp    DWORD PTR [ebp-0x4],0x13
     973:	7e e4                	jle    959 <__gmon_start__@plt+0x491>
     975:	90                   	nop
     976:	c9                   	leave  
     977:	c3                   	ret    
     978:	55                   	push   ebp
     979:	89 e5                	mov    ebp,esp
     97b:	83 ec 10             	sub    esp,0x10
     97e:	e8 5e fe ff ff       	call   7e1 <__gmon_start__@plt+0x319>
     983:	05 45 76 01 00       	add    eax,0x17645
     988:	c7 45 fc 00 00 00 00 	mov    DWORD PTR [ebp-0x4],0x0
     98f:	eb 16                	jmp    9a7 <__gmon_start__@plt+0x4df>
     991:	87 f6                	xchg   esi,esi
     993:	90                   	nop
     994:	90                   	nop
     995:	87 d2                	xchg   edx,edx
     997:	90                   	nop
     998:	90                   	nop
     999:	87 d2                	xchg   edx,edx
     99b:	87 ff                	xchg   edi,edi
     99d:	87 ff                	xchg   edi,edi
     99f:	87 f6                	xchg   esi,esi
     9a1:	87 ff                	xchg   edi,edi
     9a3:	83 45 fc 01          	add    DWORD PTR [ebp-0x4],0x1
     9a7:	83 7d fc 0e          	cmp    DWORD PTR [ebp-0x4],0xe
     9ab:	7e e4                	jle    991 <__gmon_start__@plt+0x4c9>
     9ad:	90                   	nop
     9ae:	c9                   	leave  
     9af:	c3                   	ret    
     9b0:	55                   	push   ebp
     9b1:	89 e5                	mov    ebp,esp
     9b3:	83 ec 10             	sub    esp,0x10
     9b6:	e8 26 fe ff ff       	call   7e1 <__gmon_start__@plt+0x319>
     9bb:	05 0d 76 01 00       	add    eax,0x1760d
     9c0:	c7 45 fc 00 00 00 00 	mov    DWORD PTR [ebp-0x4],0x0
     9c7:	eb 09                	jmp    9d2 <__gmon_start__@plt+0x50a>
     9c9:	90                   	nop
     9ca:	87 ff                	xchg   edi,edi
     9cc:	87 ff                	xchg   edi,edi
     9ce:	83 45 fc 01          	add    DWORD PTR [ebp-0x4],0x1
     9d2:	83 7d fc 04          	cmp    DWORD PTR [ebp-0x4],0x4
     9d6:	7e f1                	jle    9c9 <__gmon_start__@plt+0x501>
     9d8:	90                   	nop
     9d9:	c9                   	leave  
     9da:	c3                   	ret    
     9db:	55                   	push   ebp
     9dc:	89 e5                	mov    ebp,esp
     9de:	83 ec 10             	sub    esp,0x10
     9e1:	e8 fb fd ff ff       	call   7e1 <__gmon_start__@plt+0x319>
     9e6:	05 e2 75 01 00       	add    eax,0x175e2
     9eb:	c7 45 fc 00 00 00 00 	mov    DWORD PTR [ebp-0x4],0x0
     9f2:	eb 0a                	jmp    9fe <__gmon_start__@plt+0x536>
     9f4:	87 db                	xchg   ebx,ebx
     9f6:	87 f6                	xchg   esi,esi
     9f8:	87 db                	xchg   ebx,ebx
     9fa:	83 45 fc 01          	add    DWORD PTR [ebp-0x4],0x1
     9fe:	83 7d fc 12          	cmp    DWORD PTR [ebp-0x4],0x12
     a02:	7e f0                	jle    9f4 <__gmon_start__@plt+0x52c>
     a04:	90                   	nop
     a05:	c9                   	leave  
     a06:	c3                   	ret    
     a07:	55                   	push   ebp
     a08:	89 e5                	mov    ebp,esp
     a0a:	83 ec 10             	sub    esp,0x10
     a0d:	e8 cf fd ff ff       	call   7e1 <__gmon_start__@plt+0x319>
     a12:	05 b6 75 01 00       	add    eax,0x175b6
     a17:	c7 45 fc 00 00 00 00 	mov    DWORD PTR [ebp-0x4],0x0
     a1e:	eb 09                	jmp    a29 <__gmon_start__@plt+0x561>
     a20:	87 ff                	xchg   edi,edi
     a22:	87 d2                	xchg   edx,edx
     a24:	90                   	nop
     a25:	83 45 fc 01          	add    DWORD PTR [ebp-0x4],0x1
     a29:	83 7d fc 13          	cmp    DWORD PTR [ebp-0x4],0x13
     a2d:	7e f1                	jle    a20 <__gmon_start__@plt+0x558>
     a2f:	90                   	nop
     a30:	c9                   	leave  
     a31:	c3                   	ret    
     a32:	55                   	push   ebp
     a33:	89 e5                	mov    ebp,esp
     a35:	83 ec 10             	sub    esp,0x10
     a38:	e8 a4 fd ff ff       	call   7e1 <__gmon_start__@plt+0x319>
     a3d:	05 8b 75 01 00       	add    eax,0x1758b
     a42:	c7 45 fc 00 00 00 00 	mov    DWORD PTR [ebp-0x4],0x0
     a49:	eb 06                	jmp    a51 <__gmon_start__@plt+0x589>
     a4b:	87 d2                	xchg   edx,edx
     a4d:	83 45 fc 01          	add    DWORD PTR [ebp-0x4],0x1
     a51:	83 7d fc 0c          	cmp    DWORD PTR [ebp-0x4],0xc
     a55:	7e f4                	jle    a4b <__gmon_start__@plt+0x583>
     a57:	90                   	nop
     a58:	c9                   	leave  
     a59:	c3                   	ret    
     a5a:	55                   	push   ebp
     a5b:	89 e5                	mov    ebp,esp
     a5d:	83 ec 10             	sub    esp,0x10
     a60:	e8 7c fd ff ff       	call   7e1 <__gmon_start__@plt+0x319>
     a65:	05 63 75 01 00       	add    eax,0x17563
     a6a:	c7 45 fc 00 00 00 00 	mov    DWORD PTR [ebp-0x4],0x0
     a71:	eb 14                	jmp    a87 <__gmon_start__@plt+0x5bf>
     a73:	87 c9                	xchg   ecx,ecx
     a75:	87 ff                	xchg   edi,edi
     a77:	90                   	nop
     a78:	87 d2                	xchg   edx,edx
     a7a:	87 d2                	xchg   edx,edx
     a7c:	90                   	nop
     a7d:	87 d2                	xchg   edx,edx
     a7f:	90                   	nop
     a80:	90                   	nop
     a81:	87 db                	xchg   ebx,ebx
     a83:	83 45 fc 01          	add    DWORD PTR [ebp-0x4],0x1
     a87:	83 7d fc 03          	cmp    DWORD PTR [ebp-0x4],0x3
     a8b:	7e e6                	jle    a73 <__gmon_start__@plt+0x5ab>
     a8d:	90                   	nop
     a8e:	c9                   	leave  
     a8f:	c3                   	ret    
     a90:	55                   	push   ebp
     a91:	89 e5                	mov    ebp,esp
     a93:	83 ec 10             	sub    esp,0x10
     a96:	e8 46 fd ff ff       	call   7e1 <__gmon_start__@plt+0x319>
     a9b:	05 2d 75 01 00       	add    eax,0x1752d
     aa0:	c7 45 fc 00 00 00 00 	mov    DWORD PTR [ebp-0x4],0x0
     aa7:	eb 17                	jmp    ac0 <__gmon_start__@plt+0x5f8>
     aa9:	87 f6                	xchg   esi,esi
     aab:	87 f6                	xchg   esi,esi
     aad:	87 d2                	xchg   edx,edx
     aaf:	87 c9                	xchg   ecx,ecx
     ab1:	87 d2                	xchg   edx,edx
     ab3:	87 db                	xchg   ebx,ebx
     ab5:	87 db                	xchg   ebx,ebx
     ab7:	87 d2                	xchg   edx,edx
     ab9:	90                   	nop
     aba:	87 d2                	xchg   edx,edx
     abc:	83 45 fc 01          	add    DWORD PTR [ebp-0x4],0x1
     ac0:	83 7d fc 0e          	cmp    DWORD PTR [ebp-0x4],0xe
     ac4:	7e e3                	jle    aa9 <__gmon_start__@plt+0x5e1>
     ac6:	90                   	nop
     ac7:	c9                   	leave  
     ac8:	c3                   	ret    
     ac9:	55                   	push   ebp
     aca:	89 e5                	mov    ebp,esp
     acc:	83 ec 10             	sub    esp,0x10
     acf:	e8 0d fd ff ff       	call   7e1 <__gmon_start__@plt+0x319>
     ad4:	05 f4 74 01 00       	add    eax,0x174f4
     ad9:	c7 45 fc 00 00 00 00 	mov    DWORD PTR [ebp-0x4],0x0
     ae0:	eb 10                	jmp    af2 <__gmon_start__@plt+0x62a>
     ae2:	87 ff                	xchg   edi,edi
     ae4:	87 f6                	xchg   esi,esi
     ae6:	87 ff                	xchg   edi,edi
     ae8:	87 ff                	xchg   edi,edi
     aea:	90                   	nop
     aeb:	87 ff                	xchg   edi,edi
     aed:	90                   	nop
     aee:	83 45 fc 01          	add    DWORD PTR [ebp-0x4],0x1
     af2:	83 7d fc 0a          	cmp    DWORD PTR [ebp-0x4],0xa
     af6:	7e ea                	jle    ae2 <__gmon_start__@plt+0x61a>
     af8:	90                   	nop
     af9:	c9                   	leave  
     afa:	c3                   	ret    
     afb:	55                   	push   ebp
     afc:	89 e5                	mov    ebp,esp
     afe:	83 ec 10             	sub    esp,0x10
     b01:	e8 db fc ff ff       	call   7e1 <__gmon_start__@plt+0x319>
     b06:	05 c2 74 01 00       	add    eax,0x174c2
     b0b:	c7 45 fc 00 00 00 00 	mov    DWORD PTR [ebp-0x4],0x0
     b12:	eb 0b                	jmp    b1f <__gmon_start__@plt+0x657>
     b14:	87 d2                	xchg   edx,edx
     b16:	87 d2                	xchg   edx,edx
     b18:	87 d2                	xchg   edx,edx
     b1a:	90                   	nop
     b1b:	83 45 fc 01          	add    DWORD PTR [ebp-0x4],0x1
     b1f:	83 7d fc 00          	cmp    DWORD PTR [ebp-0x4],0x0
     b23:	7e ef                	jle    b14 <__gmon_start__@plt+0x64c>
     b25:	90                   	nop
     b26:	c9                   	leave  
     b27:	c3                   	ret    
     b28:	55                   	push   ebp
     b29:	89 e5                	mov    ebp,esp
     b2b:	83 ec 10             	sub    esp,0x10
     b2e:	e8 ae fc ff ff       	call   7e1 <__gmon_start__@plt+0x319>
     b33:	05 95 74 01 00       	add    eax,0x17495
     b38:	c7 45 fc 00 00 00 00 	mov    DWORD PTR [ebp-0x4],0x0
     b3f:	eb 0d                	jmp    b4e <__gmon_start__@plt+0x686>
     b41:	87 c9                	xchg   ecx,ecx
     b43:	87 d2                	xchg   edx,edx
     b45:	90                   	nop
     b46:	90                   	nop
     b47:	90                   	nop
     b48:	87 ff                	xchg   edi,edi
     b4a:	83 45 fc 01          	add    DWORD PTR [ebp-0x4],0x1
     b4e:	83 7d fc 0d          	cmp    DWORD PTR [ebp-0x4],0xd
     b52:	7e ed                	jle    b41 <__gmon_start__@plt+0x679>
     b54:	90                   	nop
     b55:	c9                   	leave  
     b56:	c3                   	ret    
     b57:	55                   	push   ebp
     b58:	89 e5                	mov    ebp,esp
     b5a:	83 ec 10             	sub    esp,0x10
     b5d:	e8 7f fc ff ff       	call   7e1 <__gmon_start__@plt+0x319>
     b62:	05 66 74 01 00       	add    eax,0x17466
     b67:	c7 45 fc 00 00 00 00 	mov    DWORD PTR [ebp-0x4],0x0
     b6e:	eb 06                	jmp    b76 <__gmon_start__@plt+0x6ae>
     b70:	90                   	nop
     b71:	90                   	nop
     b72:	83 45 fc 01          	add    DWORD PTR [ebp-0x4],0x1
     b76:	83 7d fc 02          	cmp    DWORD PTR [ebp-0x4],0x2
     b7a:	7e f4                	jle    b70 <__gmon_start__@plt+0x6a8>
     b7c:	90                   	nop
     b7d:	c9                   	leave  
     b7e:	c3                   	ret    
     b7f:	55                   	push   ebp
     b80:	89 e5                	mov    ebp,esp
     b82:	83 ec 10             	sub    esp,0x10
     b85:	e8 57 fc ff ff       	call   7e1 <__gmon_start__@plt+0x319>
     b8a:	05 3e 74 01 00       	add    eax,0x1743e
     b8f:	c7 45 fc 00 00 00 00 	mov    DWORD PTR [ebp-0x4],0x0
     b96:	eb 0e                	jmp    ba6 <__gmon_start__@plt+0x6de>
     b98:	87 d2                	xchg   edx,edx
     b9a:	87 c9                	xchg   ecx,ecx
     b9c:	90                   	nop
     b9d:	90                   	nop
     b9e:	87 db                	xchg   ebx,ebx
     ba0:	90                   	nop
     ba1:	90                   	nop
     ba2:	83 45 fc 01          	add    DWORD PTR [ebp-0x4],0x1
     ba6:	83 7d fc 00          	cmp    DWORD PTR [ebp-0x4],0x0
     baa:	7e ec                	jle    b98 <__gmon_start__@plt+0x6d0>
     bac:	90                   	nop
     bad:	c9                   	leave  
     bae:	c3                   	ret    
     baf:	55                   	push   ebp
     bb0:	89 e5                	mov    ebp,esp
     bb2:	83 ec 10             	sub    esp,0x10
     bb5:	e8 27 fc ff ff       	call   7e1 <__gmon_start__@plt+0x319>
     bba:	05 0e 74 01 00       	add    eax,0x1740e
     bbf:	c7 45 fc 00 00 00 00 	mov    DWORD PTR [ebp-0x4],0x0
     bc6:	eb 0e                	jmp    bd6 <__gmon_start__@plt+0x70e>
     bc8:	90                   	nop
     bc9:	87 db                	xchg   ebx,ebx
     bcb:	87 d2                	xchg   edx,edx
     bcd:	90                   	nop
     bce:	87 d2                	xchg   edx,edx
     bd0:	87 d2                	xchg   edx,edx
     bd2:	83 45 fc 01          	add    DWORD PTR [ebp-0x4],0x1
     bd6:	83 7d fc 0d          	cmp    DWORD PTR [ebp-0x4],0xd
     bda:	7e ec                	jle    bc8 <__gmon_start__@plt+0x700>
     bdc:	90                   	nop
     bdd:	c9                   	leave  
     bde:	c3                   	ret    
     bdf:	55                   	push   ebp
     be0:	89 e5                	mov    ebp,esp
     be2:	83 ec 10             	sub    esp,0x10
     be5:	e8 f7 fb ff ff       	call   7e1 <__gmon_start__@plt+0x319>
     bea:	05 de 73 01 00       	add    eax,0x173de
     bef:	c7 45 fc 00 00 00 00 	mov    DWORD PTR [ebp-0x4],0x0
     bf6:	eb 09                	jmp    c01 <__gmon_start__@plt+0x739>
     bf8:	90                   	nop
     bf9:	87 db                	xchg   ebx,ebx
     bfb:	87 ff                	xchg   edi,edi
     bfd:	83 45 fc 01          	add    DWORD PTR [ebp-0x4],0x1
     c01:	83 7d fc 14          	cmp    DWORD PTR [ebp-0x4],0x14
     c05:	7e f1                	jle    bf8 <__gmon_start__@plt+0x730>
     c07:	90                   	nop
     c08:	c9                   	leave  
     c09:	c3                   	ret    
     c0a:	55                   	push   ebp
     c0b:	89 e5                	mov    ebp,esp
     c0d:	83 ec 10             	sub    esp,0x10
     c10:	e8 cc fb ff ff       	call   7e1 <__gmon_start__@plt+0x319>
     c15:	05 b3 73 01 00       	add    eax,0x173b3
     c1a:	c7 45 fc 00 00 00 00 	mov    DWORD PTR [ebp-0x4],0x0
     c21:	eb 08                	jmp    c2b <__gmon_start__@plt+0x763>
     c23:	87 d2                	xchg   edx,edx
     c25:	87 d2                	xchg   edx,edx
     c27:	83 45 fc 01          	add    DWORD PTR [ebp-0x4],0x1
     c2b:	83 7d fc 09          	cmp    DWORD PTR [ebp-0x4],0x9
     c2f:	7e f2                	jle    c23 <__gmon_start__@plt+0x75b>
     c31:	90                   	nop
     c32:	c9                   	leave  
     c33:	c3                   	ret    
     c34:	55                   	push   ebp
     c35:	89 e5                	mov    ebp,esp
     c37:	83 ec 10             	sub    esp,0x10
     c3a:	e8 a2 fb ff ff       	call   7e1 <__gmon_start__@plt+0x319>
     c3f:	05 89 73 01 00       	add    eax,0x17389
     c44:	c7 45 fc 00 00 00 00 	mov    DWORD PTR [ebp-0x4],0x0
     c4b:	eb 19                	jmp    c66 <__gmon_start__@plt+0x79e>
     c4d:	87 d2                	xchg   edx,edx
     c4f:	87 f6                	xchg   esi,esi
     c51:	87 f6                	xchg   esi,esi
     c53:	87 c9                	xchg   ecx,ecx
     c55:	87 ff                	xchg   edi,edi
     c57:	87 d2                	xchg   edx,edx
     c59:	87 f6                	xchg   esi,esi
     c5b:	87 f6                	xchg   esi,esi
     c5d:	90                   	nop
     c5e:	87 d2                	xchg   edx,edx
     c60:	87 d2                	xchg   edx,edx
     c62:	83 45 fc 01          	add    DWORD PTR [ebp-0x4],0x1
     c66:	83 7d fc 03          	cmp    DWORD PTR [ebp-0x4],0x3
     c6a:	7e e1                	jle    c4d <__gmon_start__@plt+0x785>
     c6c:	90                   	nop
     c6d:	c9                   	leave  
     c6e:	c3                   	ret    
     c6f:	55                   	push   ebp
     c70:	89 e5                	mov    ebp,esp
     c72:	83 ec 10             	sub    esp,0x10
     c75:	e8 67 fb ff ff       	call   7e1 <__gmon_start__@plt+0x319>
     c7a:	05 4e 73 01 00       	add    eax,0x1734e
     c7f:	c7 45 fc 00 00 00 00 	mov    DWORD PTR [ebp-0x4],0x0
     c86:	eb 0b                	jmp    c93 <__gmon_start__@plt+0x7cb>
     c88:	87 db                	xchg   ebx,ebx
     c8a:	90                   	nop
     c8b:	87 db                	xchg   ebx,ebx
     c8d:	87 db                	xchg   ebx,ebx
     c8f:	83 45 fc 01          	add    DWORD PTR [ebp-0x4],0x1
     c93:	83 7d fc 0b          	cmp    DWORD PTR [ebp-0x4],0xb
     c97:	7e ef                	jle    c88 <__gmon_start__@plt+0x7c0>
     c99:	90                   	nop
     c9a:	c9                   	leave  
     c9b:	c3                   	ret    
     c9c:	55                   	push   ebp
     c9d:	89 e5                	mov    ebp,esp
     c9f:	83 ec 10             	sub    esp,0x10
     ca2:	e8 3a fb ff ff       	call   7e1 <__gmon_start__@plt+0x319>
     ca7:	05 21 73 01 00       	add    eax,0x17321
     cac:	c7 45 fc 00 00 00 00 	mov    DWORD PTR [ebp-0x4],0x0
     cb3:	eb 17                	jmp    ccc <__gmon_start__@plt+0x804>
     cb5:	87 ff                	xchg   edi,edi
     cb7:	90                   	nop
     cb8:	87 db                	xchg   ebx,ebx
     cba:	87 ff                	xchg   edi,edi
     cbc:	87 d2                	xchg   edx,edx
     cbe:	90                   	nop
     cbf:	87 c9                	xchg   ecx,ecx
     cc1:	87 d2                	xchg   edx,edx
     cc3:	90                   	nop
     cc4:	87 d2                	xchg   edx,edx
     cc6:	87 f6                	xchg   esi,esi
     cc8:	83 45 fc 01          	add    DWORD PTR [ebp-0x4],0x1
     ccc:	83 7d fc 0d          	cmp    DWORD PTR [ebp-0x4],0xd
     cd0:	7e e3                	jle    cb5 <__gmon_start__@plt+0x7ed>
     cd2:	90                   	nop
     cd3:	c9                   	leave  
     cd4:	c3                   	ret    
     cd5:	55                   	push   ebp
     cd6:	89 e5                	mov    ebp,esp
     cd8:	83 ec 10             	sub    esp,0x10
     cdb:	e8 01 fb ff ff       	call   7e1 <__gmon_start__@plt+0x319>
     ce0:	05 e8 72 01 00       	add    eax,0x172e8
     ce5:	c7 45 fc 00 00 00 00 	mov    DWORD PTR [ebp-0x4],0x0
     cec:	eb 13                	jmp    d01 <__gmon_start__@plt+0x839>
     cee:	87 c9                	xchg   ecx,ecx
     cf0:	90                   	nop
     cf1:	87 ff                	xchg   edi,edi
     cf3:	90                   	nop
     cf4:	90                   	nop
     cf5:	87 c9                	xchg   ecx,ecx
     cf7:	87 db                	xchg   ebx,ebx
     cf9:	87 d2                	xchg   edx,edx
     cfb:	87 d2                	xchg   edx,edx
     cfd:	83 45 fc 01          	add    DWORD PTR [ebp-0x4],0x1
     d01:	83 7d fc 02          	cmp    DWORD PTR [ebp-0x4],0x2
     d05:	7e e7                	jle    cee <__gmon_start__@plt+0x826>
     d07:	90                   	nop
     d08:	c9                   	leave  
     d09:	c3                   	ret    
     d0a:	55                   	push   ebp
     d0b:	89 e5                	mov    ebp,esp
     d0d:	83 ec 10             	sub    esp,0x10
     d10:	e8 cc fa ff ff       	call   7e1 <__gmon_start__@plt+0x319>
     d15:	05 b3 72 01 00       	add    eax,0x172b3
     d1a:	c7 45 fc 00 00 00 00 	mov    DWORD PTR [ebp-0x4],0x0
     d21:	eb 16                	jmp    d39 <__gmon_start__@plt+0x871>
     d23:	87 db                	xchg   ebx,ebx
     d25:	87 f6                	xchg   esi,esi
     d27:	87 db                	xchg   ebx,ebx
     d29:	90                   	nop
     d2a:	87 d2                	xchg   edx,edx
     d2c:	90                   	nop
     d2d:	87 c9                	xchg   ecx,ecx
     d2f:	87 db                	xchg   ebx,ebx
     d31:	90                   	nop
     d32:	87 ff                	xchg   edi,edi
     d34:	90                   	nop
     d35:	83 45 fc 01          	add    DWORD PTR [ebp-0x4],0x1
     d39:	83 7d fc 03          	cmp    DWORD PTR [ebp-0x4],0x3
     d3d:	7e e4                	jle    d23 <__gmon_start__@plt+0x85b>
     d3f:	90                   	nop
     d40:	c9                   	leave  
     d41:	c3                   	ret    
     d42:	55                   	push   ebp
     d43:	89 e5                	mov    ebp,esp
     d45:	83 ec 10             	sub    esp,0x10
     d48:	e8 94 fa ff ff       	call   7e1 <__gmon_start__@plt+0x319>
     d4d:	05 7b 72 01 00       	add    eax,0x1727b
     d52:	c7 45 fc 00 00 00 00 	mov    DWORD PTR [ebp-0x4],0x0
     d59:	eb 11                	jmp    d6c <__gmon_start__@plt+0x8a4>
     d5b:	87 f6                	xchg   esi,esi
     d5d:	87 f6                	xchg   esi,esi
     d5f:	87 c9                	xchg   ecx,ecx
     d61:	87 ff                	xchg   edi,edi
     d63:	90                   	nop
     d64:	87 ff                	xchg   edi,edi
     d66:	87 ff                	xchg   edi,edi
     d68:	83 45 fc 01          	add    DWORD PTR [ebp-0x4],0x1
     d6c:	83 7d fc 04          	cmp    DWORD PTR [ebp-0x4],0x4
     d70:	7e e9                	jle    d5b <__gmon_start__@plt+0x893>
     d72:	90                   	nop
     d73:	c9                   	leave  
     d74:	c3                   	ret    
     d75:	55                   	push   ebp
     d76:	89 e5                	mov    ebp,esp
     d78:	83 ec 10             	sub    esp,0x10
     d7b:	e8 61 fa ff ff       	call   7e1 <__gmon_start__@plt+0x319>
     d80:	05 48 72 01 00       	add    eax,0x17248
     d85:	c7 45 fc 00 00 00 00 	mov    DWORD PTR [ebp-0x4],0x0
     d8c:	eb 12                	jmp    da0 <__gmon_start__@plt+0x8d8>
     d8e:	90                   	nop
     d8f:	87 c9                	xchg   ecx,ecx
     d91:	87 c9                	xchg   ecx,ecx
     d93:	87 ff                	xchg   edi,edi
     d95:	87 c9                	xchg   ecx,ecx
     d97:	87 f6                	xchg   esi,esi
     d99:	87 ff                	xchg   edi,edi
     d9b:	90                   	nop
     d9c:	83 45 fc 01          	add    DWORD PTR [ebp-0x4],0x1
     da0:	83 7d fc 02          	cmp    DWORD PTR [ebp-0x4],0x2
     da4:	7e e8                	jle    d8e <__gmon_start__@plt+0x8c6>
     da6:	90                   	nop
     da7:	c9                   	leave  
     da8:	c3                   	ret    
     da9:	55                   	push   ebp
     daa:	89 e5                	mov    ebp,esp
     dac:	83 ec 10             	sub    esp,0x10
     daf:	e8 2d fa ff ff       	call   7e1 <__gmon_start__@plt+0x319>
     db4:	05 14 72 01 00       	add    eax,0x17214
     db9:	c7 45 fc 00 00 00 00 	mov    DWORD PTR [ebp-0x4],0x0
     dc0:	eb 08                	jmp    dca <__gmon_start__@plt+0x902>
     dc2:	90                   	nop
     dc3:	90                   	nop
     dc4:	87 d2                	xchg   edx,edx
     dc6:	83 45 fc 01          	add    DWORD PTR [ebp-0x4],0x1
     dca:	83 7d fc 0c          	cmp    DWORD PTR [ebp-0x4],0xc
     dce:	7e f2                	jle    dc2 <__gmon_start__@plt+0x8fa>
     dd0:	90                   	nop
     dd1:	c9                   	leave  
     dd2:	c3                   	ret    
     dd3:	55                   	push   ebp
     dd4:	89 e5                	mov    ebp,esp
     dd6:	83 ec 10             	sub    esp,0x10
     dd9:	e8 03 fa ff ff       	call   7e1 <__gmon_start__@plt+0x319>
     dde:	05 ea 71 01 00       	add    eax,0x171ea
     de3:	c7 45 fc 00 00 00 00 	mov    DWORD PTR [ebp-0x4],0x0
     dea:	eb 08                	jmp    df4 <__gmon_start__@plt+0x92c>
     dec:	87 db                	xchg   ebx,ebx
     dee:	87 f6                	xchg   esi,esi
     df0:	83 45 fc 01          	add    DWORD PTR [ebp-0x4],0x1
     df4:	83 7d fc 09          	cmp    DWORD PTR [ebp-0x4],0x9
     df8:	7e f2                	jle    dec <__gmon_start__@plt+0x924>
     dfa:	90                   	nop
     dfb:	c9                   	leave  
     dfc:	c3                   	ret    
     dfd:	55                   	push   ebp
     dfe:	89 e5                	mov    ebp,esp
     e00:	83 ec 10             	sub    esp,0x10
     e03:	e8 d9 f9 ff ff       	call   7e1 <__gmon_start__@plt+0x319>
     e08:	05 c0 71 01 00       	add    eax,0x171c0
     e0d:	c7 45 fc 00 00 00 00 	mov    DWORD PTR [ebp-0x4],0x0
     e14:	eb 13                	jmp    e29 <__gmon_start__@plt+0x961>
     e16:	87 d2                	xchg   edx,edx
     e18:	87 c9                	xchg   ecx,ecx
     e1a:	87 f6                	xchg   esi,esi
     e1c:	87 c9                	xchg   ecx,ecx
     e1e:	87 c9                	xchg   ecx,ecx
     e20:	87 d2                	xchg   edx,edx
     e22:	90                   	nop
     e23:	87 d2                	xchg   edx,edx
     e25:	83 45 fc 01          	add    DWORD PTR [ebp-0x4],0x1
     e29:	83 7d fc 00          	cmp    DWORD PTR [ebp-0x4],0x0
     e2d:	7e e7                	jle    e16 <__gmon_start__@plt+0x94e>
     e2f:	90                   	nop
     e30:	c9                   	leave  
     e31:	c3                   	ret    
     e32:	55                   	push   ebp
     e33:	89 e5                	mov    ebp,esp
     e35:	83 ec 10             	sub    esp,0x10
     e38:	e8 a4 f9 ff ff       	call   7e1 <__gmon_start__@plt+0x319>
     e3d:	05 8b 71 01 00       	add    eax,0x1718b
     e42:	c7 45 fc 00 00 00 00 	mov    DWORD PTR [ebp-0x4],0x0
     e49:	eb 19                	jmp    e64 <__gmon_start__@plt+0x99c>
     e4b:	87 db                	xchg   ebx,ebx
     e4d:	87 d2                	xchg   edx,edx
     e4f:	87 d2                	xchg   edx,edx
     e51:	87 d2                	xchg   edx,edx
     e53:	87 db                	xchg   ebx,ebx
     e55:	90                   	nop
     e56:	87 f6                	xchg   esi,esi
     e58:	87 f6                	xchg   esi,esi
     e5a:	87 c9                	xchg   ecx,ecx
     e5c:	87 db                	xchg   ebx,ebx
     e5e:	87 d2                	xchg   edx,edx
     e60:	83 45 fc 01          	add    DWORD PTR [ebp-0x4],0x1
     e64:	83 7d fc 07          	cmp    DWORD PTR [ebp-0x4],0x7
     e68:	7e e1                	jle    e4b <__gmon_start__@plt+0x983>
     e6a:	90                   	nop
     e6b:	c9                   	leave  
     e6c:	c3                   	ret    
     e6d:	55                   	push   ebp
     e6e:	89 e5                	mov    ebp,esp
     e70:	83 ec 10             	sub    esp,0x10
     e73:	e8 69 f9 ff ff       	call   7e1 <__gmon_start__@plt+0x319>
     e78:	05 50 71 01 00       	add    eax,0x17150
     e7d:	c7 45 fc 00 00 00 00 	mov    DWORD PTR [ebp-0x4],0x0
     e84:	eb 0d                	jmp    e93 <__gmon_start__@plt+0x9cb>
     e86:	87 ff                	xchg   edi,edi
     e88:	87 f6                	xchg   esi,esi
     e8a:	87 d2                	xchg   edx,edx
     e8c:	87 db                	xchg   ebx,ebx
     e8e:	90                   	nop
     e8f:	83 45 fc 01          	add    DWORD PTR [ebp-0x4],0x1
     e93:	83 7d fc 01          	cmp    DWORD PTR [ebp-0x4],0x1
     e97:	7e ed                	jle    e86 <__gmon_start__@plt+0x9be>
     e99:	90                   	nop
     e9a:	c9                   	leave  
     e9b:	c3                   	ret    
     e9c:	55                   	push   ebp
     e9d:	89 e5                	mov    ebp,esp
     e9f:	83 ec 10             	sub    esp,0x10
     ea2:	e8 3a f9 ff ff       	call   7e1 <__gmon_start__@plt+0x319>
     ea7:	05 21 71 01 00       	add    eax,0x17121
     eac:	c7 45 fc 00 00 00 00 	mov    DWORD PTR [ebp-0x4],0x0
     eb3:	eb 10                	jmp    ec5 <__gmon_start__@plt+0x9fd>
     eb5:	87 c9                	xchg   ecx,ecx
     eb7:	87 db                	xchg   ebx,ebx
     eb9:	87 f6                	xchg   esi,esi
     ebb:	87 f6                	xchg   esi,esi
     ebd:	87 d2                	xchg   edx,edx
     ebf:	87 db                	xchg   ebx,ebx
     ec1:	83 45 fc 01          	add    DWORD PTR [ebp-0x4],0x1
     ec5:	83 7d fc 08          	cmp    DWORD PTR [ebp-0x4],0x8
     ec9:	7e ea                	jle    eb5 <__gmon_start__@plt+0x9ed>
     ecb:	90                   	nop
     ecc:	c9                   	leave  
     ecd:	c3                   	ret    
     ece:	55                   	push   ebp
     ecf:	89 e5                	mov    ebp,esp
     ed1:	83 ec 10             	sub    esp,0x10
     ed4:	e8 08 f9 ff ff       	call   7e1 <__gmon_start__@plt+0x319>
     ed9:	05 ef 70 01 00       	add    eax,0x170ef
     ede:	c7 45 fc 00 00 00 00 	mov    DWORD PTR [ebp-0x4],0x0
     ee5:	eb 0d                	jmp    ef4 <__gmon_start__@plt+0xa2c>
     ee7:	87 c9                	xchg   ecx,ecx
     ee9:	90                   	nop
     eea:	87 d2                	xchg   edx,edx
     eec:	87 db                	xchg   ebx,ebx
     eee:	90                   	nop
     eef:	90                   	nop
     ef0:	83 45 fc 01          	add    DWORD PTR [ebp-0x4],0x1
     ef4:	83 7d fc 0f          	cmp    DWORD PTR [ebp-0x4],0xf
     ef8:	7e ed                	jle    ee7 <__gmon_start__@plt+0xa1f>
     efa:	90                   	nop
     efb:	c9                   	leave  
     efc:	c3                   	ret    
     efd:	55                   	push   ebp
     efe:	89 e5                	mov    ebp,esp
     f00:	83 ec 10             	sub    esp,0x10
     f03:	e8 d9 f8 ff ff       	call   7e1 <__gmon_start__@plt+0x319>
     f08:	05 c0 70 01 00       	add    eax,0x170c0
     f0d:	c7 45 fc 00 00 00 00 	mov    DWORD PTR [ebp-0x4],0x0
     f14:	eb 16                	jmp    f2c <__gmon_start__@plt+0xa64>
     f16:	90                   	nop
     f17:	87 f6                	xchg   esi,esi
     f19:	87 db                	xchg   ebx,ebx
     f1b:	87 db                	xchg   ebx,ebx
     f1d:	87 f6                	xchg   esi,esi
     f1f:	87 c9                	xchg   ecx,ecx
     f21:	87 d2                	xchg   edx,edx
     f23:	87 d2                	xchg   edx,edx
     f25:	87 c9                	xchg   ecx,ecx
     f27:	90                   	nop
     f28:	83 45 fc 01          	add    DWORD PTR [ebp-0x4],0x1
     f2c:	83 7d fc 12          	cmp    DWORD PTR [ebp-0x4],0x12
     f30:	7e e4                	jle    f16 <__gmon_start__@plt+0xa4e>
     f32:	90                   	nop
     f33:	c9                   	leave  
     f34:	c3                   	ret    
     f35:	55                   	push   ebp
     f36:	89 e5                	mov    ebp,esp
     f38:	83 ec 10             	sub    esp,0x10
     f3b:	e8 a1 f8 ff ff       	call   7e1 <__gmon_start__@plt+0x319>
     f40:	05 88 70 01 00       	add    eax,0x17088
     f45:	c7 45 fc 00 00 00 00 	mov    DWORD PTR [ebp-0x4],0x0
     f4c:	eb 12                	jmp    f60 <__gmon_start__@plt+0xa98>
     f4e:	87 f6                	xchg   esi,esi
     f50:	87 d2                	xchg   edx,edx
     f52:	87 db                	xchg   ebx,ebx
     f54:	87 c9                	xchg   ecx,ecx
     f56:	90                   	nop
     f57:	87 db                	xchg   ebx,ebx
     f59:	90                   	nop
     f5a:	87 d2                	xchg   edx,edx
     f5c:	83 45 fc 01          	add    DWORD PTR [ebp-0x4],0x1
     f60:	83 7d fc 0f          	cmp    DWORD PTR [ebp-0x4],0xf
     f64:	7e e8                	jle    f4e <__gmon_start__@plt+0xa86>
     f66:	90                   	nop
     f67:	c9                   	leave  
     f68:	c3                   	ret    
     f69:	55                   	push   ebp
     f6a:	89 e5                	mov    ebp,esp
     f6c:	83 ec 10             	sub    esp,0x10
     f6f:	e8 6d f8 ff ff       	call   7e1 <__gmon_start__@plt+0x319>
     f74:	05 54 70 01 00       	add    eax,0x17054
     f79:	c7 45 fc 00 00 00 00 	mov    DWORD PTR [ebp-0x4],0x0
     f80:	eb 13                	jmp    f95 <__gmon_start__@plt+0xacd>
     f82:	87 db                	xchg   ebx,ebx
     f84:	87 ff                	xchg   edi,edi
     f86:	87 d2                	xchg   edx,edx
     f88:	87 d2                	xchg   edx,edx
     f8a:	90                   	nop
     f8b:	87 d2                	xchg   edx,edx
     f8d:	90                   	nop
     f8e:	90                   	nop
     f8f:	87 c9                	xchg   ecx,ecx
     f91:	83 45 fc 01          	add    DWORD PTR [ebp-0x4],0x1
     f95:	83 7d fc 01          	cmp    DWORD PTR [ebp-0x4],0x1
     f99:	7e e7                	jle    f82 <__gmon_start__@plt+0xaba>
     f9b:	90                   	nop
     f9c:	c9                   	leave  
     f9d:	c3                   	ret    
     f9e:	55                   	push   ebp
     f9f:	89 e5                	mov    ebp,esp
     fa1:	83 ec 10             	sub    esp,0x10
     fa4:	e8 38 f8 ff ff       	call   7e1 <__gmon_start__@plt+0x319>
     fa9:	05 1f 70 01 00       	add    eax,0x1701f
     fae:	c7 45 fc 00 00 00 00 	mov    DWORD PTR [ebp-0x4],0x0
     fb5:	eb 0e                	jmp    fc5 <__gmon_start__@plt+0xafd>
     fb7:	87 c9                	xchg   ecx,ecx
     fb9:	87 c9                	xchg   ecx,ecx
     fbb:	90                   	nop
     fbc:	87 d2                	xchg   edx,edx
     fbe:	90                   	nop
     fbf:	90                   	nop
     fc0:	90                   	nop
     fc1:	83 45 fc 01          	add    DWORD PTR [ebp-0x4],0x1
     fc5:	83 7d fc 03          	cmp    DWORD PTR [ebp-0x4],0x3
     fc9:	7e ec                	jle    fb7 <__gmon_start__@plt+0xaef>
     fcb:	90                   	nop
     fcc:	c9                   	leave  
     fcd:	c3                   	ret    
     fce:	55                   	push   ebp
     fcf:	89 e5                	mov    ebp,esp
     fd1:	83 ec 10             	sub    esp,0x10
     fd4:	e8 08 f8 ff ff       	call   7e1 <__gmon_start__@plt+0x319>
     fd9:	05 ef 6f 01 00       	add    eax,0x16fef
     fde:	c7 45 fc 00 00 00 00 	mov    DWORD PTR [ebp-0x4],0x0
     fe5:	eb 15                	jmp    ffc <__gmon_start__@plt+0xb34>
     fe7:	87 c9                	xchg   ecx,ecx
     fe9:	87 db                	xchg   ebx,ebx
     feb:	87 f6                	xchg   esi,esi
     fed:	90                   	nop
     fee:	87 ff                	xchg   edi,edi
     ff0:	87 d2                	xchg   edx,edx
     ff2:	87 f6                	xchg   esi,esi
     ff4:	87 c9                	xchg   ecx,ecx
     ff6:	87 ff                	xchg   edi,edi
     ff8:	83 45 fc 01          	add    DWORD PTR [ebp-0x4],0x1
     ffc:	83 7d fc 11          	cmp    DWORD PTR [ebp-0x4],0x11
    1000:	7e e5                	jle    fe7 <__gmon_start__@plt+0xb1f>
    1002:	90                   	nop
    1003:	c9                   	leave  
    1004:	c3                   	ret    
    1005:	55                   	push   ebp
    1006:	89 e5                	mov    ebp,esp
    1008:	83 ec 10             	sub    esp,0x10
    100b:	e8 d1 f7 ff ff       	call   7e1 <__gmon_start__@plt+0x319>
    1010:	05 b8 6f 01 00       	add    eax,0x16fb8
    1015:	c7 45 fc 00 00 00 00 	mov    DWORD PTR [ebp-0x4],0x0
    101c:	eb 06                	jmp    1024 <__gmon_start__@plt+0xb5c>
    101e:	87 d2                	xchg   edx,edx
    1020:	83 45 fc 01          	add    DWORD PTR [ebp-0x4],0x1
    1024:	83 7d fc 11          	cmp    DWORD PTR [ebp-0x4],0x11
    1028:	7e f4                	jle    101e <__gmon_start__@plt+0xb56>
    102a:	90                   	nop
    102b:	c9                   	leave  
    102c:	c3                   	ret    
    102d:	55                   	push   ebp
    102e:	89 e5                	mov    ebp,esp
    1030:	83 ec 10             	sub    esp,0x10
    1033:	e8 a9 f7 ff ff       	call   7e1 <__gmon_start__@plt+0x319>
    1038:	05 90 6f 01 00       	add    eax,0x16f90
    103d:	c7 45 fc 00 00 00 00 	mov    DWORD PTR [ebp-0x4],0x0
    1044:	eb 0e                	jmp    1054 <__gmon_start__@plt+0xb8c>
    1046:	87 f6                	xchg   esi,esi
    1048:	87 d2                	xchg   edx,edx
    104a:	87 db                	xchg   ebx,ebx
    104c:	87 d2                	xchg   edx,edx
    104e:	87 d2                	xchg   edx,edx
    1050:	83 45 fc 01          	add    DWORD PTR [ebp-0x4],0x1
    1054:	83 7d fc 09          	cmp    DWORD PTR [ebp-0x4],0x9
    1058:	7e ec                	jle    1046 <__gmon_start__@plt+0xb7e>
    105a:	90                   	nop
    105b:	c9                   	leave  
    105c:	c3                   	ret    
    105d:	55                   	push   ebp
    105e:	89 e5                	mov    ebp,esp
    1060:	83 ec 10             	sub    esp,0x10
    1063:	e8 79 f7 ff ff       	call   7e1 <__gmon_start__@plt+0x319>
    1068:	05 60 6f 01 00       	add    eax,0x16f60
    106d:	c7 45 fc 00 00 00 00 	mov    DWORD PTR [ebp-0x4],0x0
    1074:	eb 08                	jmp    107e <__gmon_start__@plt+0xbb6>
    1076:	87 c9                	xchg   ecx,ecx
    1078:	87 db                	xchg   ebx,ebx
    107a:	83 45 fc 01          	add    DWORD PTR [ebp-0x4],0x1
    107e:	83 7d fc 0c          	cmp    DWORD PTR [ebp-0x4],0xc
    1082:	7e f2                	jle    1076 <__gmon_start__@plt+0xbae>
    1084:	90                   	nop
    1085:	c9                   	leave  
    1086:	c3                   	ret    
    1087:	55                   	push   ebp
    1088:	89 e5                	mov    ebp,esp
    108a:	83 ec 10             	sub    esp,0x10
    108d:	e8 4f f7 ff ff       	call   7e1 <__gmon_start__@plt+0x319>
    1092:	05 36 6f 01 00       	add    eax,0x16f36
    1097:	c7 45 fc 00 00 00 00 	mov    DWORD PTR [ebp-0x4],0x0
    109e:	eb 06                	jmp    10a6 <__gmon_start__@plt+0xbde>
    10a0:	87 db                	xchg   ebx,ebx
    10a2:	83 45 fc 01          	add    DWORD PTR [ebp-0x4],0x1
    10a6:	83 7d fc 00          	cmp    DWORD PTR [ebp-0x4],0x0
    10aa:	7e f4                	jle    10a0 <__gmon_start__@plt+0xbd8>
    10ac:	90                   	nop
    10ad:	c9                   	leave  
    10ae:	c3                   	ret    
    10af:	55                   	push   ebp
    10b0:	89 e5                	mov    ebp,esp
    10b2:	83 ec 10             	sub    esp,0x10
    10b5:	e8 27 f7 ff ff       	call   7e1 <__gmon_start__@plt+0x319>
    10ba:	05 0e 6f 01 00       	add    eax,0x16f0e
    10bf:	c7 45 fc 00 00 00 00 	mov    DWORD PTR [ebp-0x4],0x0
    10c6:	eb 14                	jmp    10dc <__gmon_start__@plt+0xc14>
    10c8:	87 c9                	xchg   ecx,ecx
    10ca:	87 c9                	xchg   ecx,ecx
    10cc:	87 ff                	xchg   edi,edi
    10ce:	90                   	nop
    10cf:	87 c9                	xchg   ecx,ecx
    10d1:	90                   	nop
    10d2:	90                   	nop
    10d3:	87 d2                	xchg   edx,edx
    10d5:	90                   	nop
    10d6:	87 db                	xchg   ebx,ebx
    10d8:	83 45 fc 01          	add    DWORD PTR [ebp-0x4],0x1
    10dc:	83 7d fc 04          	cmp    DWORD PTR [ebp-0x4],0x4
    10e0:	7e e6                	jle    10c8 <__gmon_start__@plt+0xc00>
    10e2:	90                   	nop
    10e3:	c9                   	leave  
    10e4:	c3                   	ret    
    10e5:	55                   	push   ebp
    10e6:	89 e5                	mov    ebp,esp
    10e8:	83 ec 10             	sub    esp,0x10
    10eb:	e8 f1 f6 ff ff       	call   7e1 <__gmon_start__@plt+0x319>
    10f0:	05 d8 6e 01 00       	add    eax,0x16ed8
    10f5:	c7 45 fc 00 00 00 00 	mov    DWORD PTR [ebp-0x4],0x0
    10fc:	eb 15                	jmp    1113 <__gmon_start__@plt+0xc4b>
    10fe:	87 d2                	xchg   edx,edx
    1100:	90                   	nop
    1101:	87 d2                	xchg   edx,edx
    1103:	87 db                	xchg   ebx,ebx
    1105:	87 d2                	xchg   edx,edx
    1107:	87 f6                	xchg   esi,esi
    1109:	87 db                	xchg   ebx,ebx
    110b:	87 d2                	xchg   edx,edx
    110d:	87 d2                	xchg   edx,edx
    110f:	83 45 fc 01          	add    DWORD PTR [ebp-0x4],0x1
    1113:	83 7d fc 13          	cmp    DWORD PTR [ebp-0x4],0x13
    1117:	7e e5                	jle    10fe <__gmon_start__@plt+0xc36>
    1119:	90                   	nop
    111a:	c9                   	leave  
    111b:	c3                   	ret    
    111c:	55                   	push   ebp
    111d:	89 e5                	mov    ebp,esp
    111f:	83 ec 10             	sub    esp,0x10
    1122:	e8 ba f6 ff ff       	call   7e1 <__gmon_start__@plt+0x319>
    1127:	05 a1 6e 01 00       	add    eax,0x16ea1
    112c:	c7 45 fc 00 00 00 00 	mov    DWORD PTR [ebp-0x4],0x0
    1133:	eb 0d                	jmp    1142 <__gmon_start__@plt+0xc7a>
    1135:	90                   	nop
    1136:	87 f6                	xchg   esi,esi
    1138:	87 d2                	xchg   edx,edx
    113a:	87 c9                	xchg   ecx,ecx
    113c:	87 c9                	xchg   ecx,ecx
    113e:	83 45 fc 01          	add    DWORD PTR [ebp-0x4],0x1
    1142:	83 7d fc 14          	cmp    DWORD PTR [ebp-0x4],0x14
    1146:	7e ed                	jle    1135 <__gmon_start__@plt+0xc6d>
    1148:	90                   	nop
    1149:	c9                   	leave  
    114a:	c3                   	ret    
    114b:	55                   	push   ebp
    114c:	89 e5                	mov    ebp,esp
    114e:	83 ec 10             	sub    esp,0x10
    1151:	e8 8b f6 ff ff       	call   7e1 <__gmon_start__@plt+0x319>
    1156:	05 72 6e 01 00       	add    eax,0x16e72
    115b:	c7 45 fc 00 00 00 00 	mov    DWORD PTR [ebp-0x4],0x0
    1162:	eb 09                	jmp    116d <__gmon_start__@plt+0xca5>
    1164:	87 f6                	xchg   esi,esi
    1166:	90                   	nop
    1167:	90                   	nop
    1168:	90                   	nop
    1169:	83 45 fc 01          	add    DWORD PTR [ebp-0x4],0x1
    116d:	83 7d fc 00          	cmp    DWORD PTR [ebp-0x4],0x0
    1171:	7e f1                	jle    1164 <__gmon_start__@plt+0xc9c>
    1173:	90                   	nop
    1174:	c9                   	leave  
    1175:	c3                   	ret    
    1176:	55                   	push   ebp
    1177:	89 e5                	mov    ebp,esp
    1179:	83 ec 10             	sub    esp,0x10
    117c:	e8 60 f6 ff ff       	call   7e1 <__gmon_start__@plt+0x319>
    1181:	05 47 6e 01 00       	add    eax,0x16e47
    1186:	c7 45 fc 00 00 00 00 	mov    DWORD PTR [ebp-0x4],0x0
    118d:	eb 12                	jmp    11a1 <__gmon_start__@plt+0xcd9>
    118f:	90                   	nop
    1190:	87 ff                	xchg   edi,edi
    1192:	87 ff                	xchg   edi,edi
    1194:	87 d2                	xchg   edx,edx
    1196:	87 d2                	xchg   edx,edx
    1198:	90                   	nop
    1199:	87 d2                	xchg   edx,edx
    119b:	87 c9                	xchg   ecx,ecx
    119d:	83 45 fc 01          	add    DWORD PTR [ebp-0x4],0x1
    11a1:	83 7d fc 10          	cmp    DWORD PTR [ebp-0x4],0x10
    11a5:	7e e8                	jle    118f <__gmon_start__@plt+0xcc7>
    11a7:	90                   	nop
    11a8:	c9                   	leave  
    11a9:	c3                   	ret    
    11aa:	55                   	push   ebp
    11ab:	89 e5                	mov    ebp,esp
    11ad:	83 ec 10             	sub    esp,0x10
    11b0:	e8 2c f6 ff ff       	call   7e1 <__gmon_start__@plt+0x319>
    11b5:	05 13 6e 01 00       	add    eax,0x16e13
    11ba:	c7 45 fc 00 00 00 00 	mov    DWORD PTR [ebp-0x4],0x0
    11c1:	eb 13                	jmp    11d6 <__gmon_start__@plt+0xd0e>
    11c3:	87 ff                	xchg   edi,edi
    11c5:	87 f6                	xchg   esi,esi
    11c7:	90                   	nop
    11c8:	87 ff                	xchg   edi,edi
    11ca:	87 f6                	xchg   esi,esi
    11cc:	90                   	nop
    11cd:	87 d2                	xchg   edx,edx
    11cf:	87 d2                	xchg   edx,edx
    11d1:	90                   	nop
    11d2:	83 45 fc 01          	add    DWORD PTR [ebp-0x4],0x1
    11d6:	83 7d fc 07          	cmp    DWORD PTR [ebp-0x4],0x7
    11da:	7e e7                	jle    11c3 <__gmon_start__@plt+0xcfb>
    11dc:	90                   	nop
    11dd:	c9                   	leave  
    11de:	c3                   	ret    
    11df:	55                   	push   ebp
    11e0:	89 e5                	mov    ebp,esp
    11e2:	83 ec 10             	sub    esp,0x10
    11e5:	e8 f7 f5 ff ff       	call   7e1 <__gmon_start__@plt+0x319>
    11ea:	05 de 6d 01 00       	add    eax,0x16dde
    11ef:	c7 45 fc 00 00 00 00 	mov    DWORD PTR [ebp-0x4],0x0
    11f6:	eb 08                	jmp    1200 <__gmon_start__@plt+0xd38>
    11f8:	90                   	nop
    11f9:	90                   	nop
    11fa:	90                   	nop
    11fb:	90                   	nop
    11fc:	83 45 fc 01          	add    DWORD PTR [ebp-0x4],0x1
    1200:	83 7d fc 04          	cmp    DWORD PTR [ebp-0x4],0x4
    1204:	7e f2                	jle    11f8 <__gmon_start__@plt+0xd30>
    1206:	90                   	nop
    1207:	c9                   	leave  
    1208:	c3                   	ret    
    1209:	55                   	push   ebp
    120a:	89 e5                	mov    ebp,esp
    120c:	83 ec 10             	sub    esp,0x10
    120f:	e8 cd f5 ff ff       	call   7e1 <__gmon_start__@plt+0x319>
    1214:	05 b4 6d 01 00       	add    eax,0x16db4
    1219:	c7 45 fc 00 00 00 00 	mov    DWORD PTR [ebp-0x4],0x0
    1220:	eb 15                	jmp    1237 <__gmon_start__@plt+0xd6f>
    1222:	87 d2                	xchg   edx,edx
    1224:	87 ff                	xchg   edi,edi
    1226:	90                   	nop
    1227:	87 ff                	xchg   edi,edi
    1229:	87 db                	xchg   ebx,ebx
    122b:	87 ff                	xchg   edi,edi
    122d:	87 ff                	xchg   edi,edi
    122f:	87 f6                	xchg   esi,esi
    1231:	87 c9                	xchg   ecx,ecx
    1233:	83 45 fc 01          	add    DWORD PTR [ebp-0x4],0x1
    1237:	83 7d fc 03          	cmp    DWORD PTR [ebp-0x4],0x3
    123b:	7e e5                	jle    1222 <__gmon_start__@plt+0xd5a>
    123d:	90                   	nop
    123e:	c9                   	leave  
    123f:	c3                   	ret    
    1240:	55                   	push   ebp
    1241:	89 e5                	mov    ebp,esp
    1243:	83 ec 10             	sub    esp,0x10
    1246:	e8 96 f5 ff ff       	call   7e1 <__gmon_start__@plt+0x319>
    124b:	05 7d 6d 01 00       	add    eax,0x16d7d
    1250:	c7 45 fc 00 00 00 00 	mov    DWORD PTR [ebp-0x4],0x0
    1257:	eb 0f                	jmp    1268 <__gmon_start__@plt+0xda0>
    1259:	87 c9                	xchg   ecx,ecx
    125b:	90                   	nop
    125c:	87 d2                	xchg   edx,edx
    125e:	87 d2                	xchg   edx,edx
    1260:	87 db                	xchg   ebx,ebx
    1262:	87 db                	xchg   ebx,ebx
    1264:	83 45 fc 01          	add    DWORD PTR [ebp-0x4],0x1
    1268:	83 7d fc 08          	cmp    DWORD PTR [ebp-0x4],0x8
    126c:	7e eb                	jle    1259 <__gmon_start__@plt+0xd91>
    126e:	90                   	nop
    126f:	c9                   	leave  
    1270:	c3                   	ret    
    1271:	55                   	push   ebp
    1272:	89 e5                	mov    ebp,esp
    1274:	83 ec 10             	sub    esp,0x10
    1277:	e8 65 f5 ff ff       	call   7e1 <__gmon_start__@plt+0x319>
    127c:	05 4c 6d 01 00       	add    eax,0x16d4c
    1281:	c7 45 fc 00 00 00 00 	mov    DWORD PTR [ebp-0x4],0x0
    1288:	eb 12                	jmp    129c <__gmon_start__@plt+0xdd4>
    128a:	87 c9                	xchg   ecx,ecx
    128c:	87 c9                	xchg   ecx,ecx
    128e:	87 d2                	xchg   edx,edx
    1290:	87 f6                	xchg   esi,esi
    1292:	87 c9                	xchg   ecx,ecx
    1294:	87 db                	xchg   ebx,ebx
    1296:	87 db                	xchg   ebx,ebx
    1298:	83 45 fc 01          	add    DWORD PTR [ebp-0x4],0x1
    129c:	83 7d fc 06          	cmp    DWORD PTR [ebp-0x4],0x6
    12a0:	7e e8                	jle    128a <__gmon_start__@plt+0xdc2>
    12a2:	90                   	nop
    12a3:	c9                   	leave  
    12a4:	c3                   	ret    
    12a5:	55                   	push   ebp
    12a6:	89 e5                	mov    ebp,esp
    12a8:	83 ec 10             	sub    esp,0x10
    12ab:	e8 31 f5 ff ff       	call   7e1 <__gmon_start__@plt+0x319>
    12b0:	05 18 6d 01 00       	add    eax,0x16d18
    12b5:	c7 45 fc 00 00 00 00 	mov    DWORD PTR [ebp-0x4],0x0
    12bc:	eb 0a                	jmp    12c8 <__gmon_start__@plt+0xe00>
    12be:	87 c9                	xchg   ecx,ecx
    12c0:	87 f6                	xchg   esi,esi
    12c2:	87 db                	xchg   ebx,ebx
    12c4:	83 45 fc 01          	add    DWORD PTR [ebp-0x4],0x1
    12c8:	83 7d fc 04          	cmp    DWORD PTR [ebp-0x4],0x4
    12cc:	7e f0                	jle    12be <__gmon_start__@plt+0xdf6>
    12ce:	90                   	nop
    12cf:	c9                   	leave  
    12d0:	c3                   	ret    
    12d1:	55                   	push   ebp
    12d2:	89 e5                	mov    ebp,esp
    12d4:	83 ec 10             	sub    esp,0x10
    12d7:	e8 05 f5 ff ff       	call   7e1 <__gmon_start__@plt+0x319>
    12dc:	05 ec 6c 01 00       	add    eax,0x16cec
    12e1:	c7 45 fc 00 00 00 00 	mov    DWORD PTR [ebp-0x4],0x0
    12e8:	eb 17                	jmp    1301 <__gmon_start__@plt+0xe39>
    12ea:	87 f6                	xchg   esi,esi
    12ec:	87 db                	xchg   ebx,ebx
    12ee:	87 d2                	xchg   edx,edx
    12f0:	87 d2                	xchg   edx,edx
    12f2:	87 d2                	xchg   edx,edx
    12f4:	90                   	nop
    12f5:	87 d2                	xchg   edx,edx
    12f7:	87 d2                	xchg   edx,edx
    12f9:	87 ff                	xchg   edi,edi
    12fb:	87 d2                	xchg   edx,edx
    12fd:	83 45 fc 01          	add    DWORD PTR [ebp-0x4],0x1
    1301:	83 7d fc 12          	cmp    DWORD PTR [ebp-0x4],0x12
    1305:	7e e3                	jle    12ea <__gmon_start__@plt+0xe22>
    1307:	90                   	nop
    1308:	c9                   	leave  
    1309:	c3                   	ret    
    130a:	55                   	push   ebp
    130b:	89 e5                	mov    ebp,esp
    130d:	83 ec 10             	sub    esp,0x10
    1310:	e8 cc f4 ff ff       	call   7e1 <__gmon_start__@plt+0x319>
    1315:	05 b3 6c 01 00       	add    eax,0x16cb3
    131a:	c7 45 fc 00 00 00 00 	mov    DWORD PTR [ebp-0x4],0x0
    1321:	eb 0b                	jmp    132e <__gmon_start__@plt+0xe66>
    1323:	90                   	nop
    1324:	87 ff                	xchg   edi,edi
    1326:	87 ff                	xchg   edi,edi
    1328:	87 f6                	xchg   esi,esi
    132a:	83 45 fc 01          	add    DWORD PTR [ebp-0x4],0x1
    132e:	83 7d fc 08          	cmp    DWORD PTR [ebp-0x4],0x8
    1332:	7e ef                	jle    1323 <__gmon_start__@plt+0xe5b>
    1334:	90                   	nop
    1335:	c9                   	leave  
    1336:	c3                   	ret    
    1337:	55                   	push   ebp
    1338:	89 e5                	mov    ebp,esp
    133a:	83 ec 10             	sub    esp,0x10
    133d:	e8 9f f4 ff ff       	call   7e1 <__gmon_start__@plt+0x319>
    1342:	05 86 6c 01 00       	add    eax,0x16c86
    1347:	c7 45 fc 00 00 00 00 	mov    DWORD PTR [ebp-0x4],0x0
    134e:	eb 14                	jmp    1364 <__gmon_start__@plt+0xe9c>
    1350:	90                   	nop
    1351:	90                   	nop
    1352:	87 f6                	xchg   esi,esi
    1354:	87 f6                	xchg   esi,esi
    1356:	90                   	nop
    1357:	87 d2                	xchg   edx,edx
    1359:	87 d2                	xchg   edx,edx
    135b:	87 d2                	xchg   edx,edx
    135d:	90                   	nop
    135e:	87 d2                	xchg   edx,edx
    1360:	83 45 fc 01          	add    DWORD PTR [ebp-0x4],0x1
    1364:	83 7d fc 14          	cmp    DWORD PTR [ebp-0x4],0x14
    1368:	7e e6                	jle    1350 <__gmon_start__@plt+0xe88>
    136a:	90                   	nop
    136b:	c9                   	leave  
    136c:	c3                   	ret    
    136d:	55                   	push   ebp
    136e:	89 e5                	mov    ebp,esp
    1370:	83 ec 10             	sub    esp,0x10
    1373:	e8 69 f4 ff ff       	call   7e1 <__gmon_start__@plt+0x319>
    1378:	05 50 6c 01 00       	add    eax,0x16c50
    137d:	c7 45 fc 00 00 00 00 	mov    DWORD PTR [ebp-0x4],0x0
    1384:	eb 09                	jmp    138f <__gmon_start__@plt+0xec7>
    1386:	90                   	nop
    1387:	87 d2                	xchg   edx,edx
    1389:	87 db                	xchg   ebx,ebx
    138b:	83 45 fc 01          	add    DWORD PTR [ebp-0x4],0x1
    138f:	83 7d fc 0b          	cmp    DWORD PTR [ebp-0x4],0xb
    1393:	7e f1                	jle    1386 <__gmon_start__@plt+0xebe>
    1395:	90                   	nop
    1396:	c9                   	leave  
    1397:	c3                   	ret    
    1398:	55                   	push   ebp
    1399:	89 e5                	mov    ebp,esp
    139b:	83 ec 10             	sub    esp,0x10
    139e:	e8 3e f4 ff ff       	call   7e1 <__gmon_start__@plt+0x319>
    13a3:	05 25 6c 01 00       	add    eax,0x16c25
    13a8:	c7 45 fc 00 00 00 00 	mov    DWORD PTR [ebp-0x4],0x0
    13af:	eb 0d                	jmp    13be <__gmon_start__@plt+0xef6>
    13b1:	87 db                	xchg   ebx,ebx
    13b3:	87 db                	xchg   ebx,ebx
    13b5:	90                   	nop
    13b6:	87 db                	xchg   ebx,ebx
    13b8:	87 d2                	xchg   edx,edx
    13ba:	83 45 fc 01          	add    DWORD PTR [ebp-0x4],0x1
    13be:	83 7d fc 0f          	cmp    DWORD PTR [ebp-0x4],0xf
    13c2:	7e ed                	jle    13b1 <__gmon_start__@plt+0xee9>
    13c4:	90                   	nop
    13c5:	c9                   	leave  
    13c6:	c3                   	ret    
    13c7:	55                   	push   ebp
    13c8:	89 e5                	mov    ebp,esp
    13ca:	83 ec 10             	sub    esp,0x10
    13cd:	e8 0f f4 ff ff       	call   7e1 <__gmon_start__@plt+0x319>
    13d2:	05 f6 6b 01 00       	add    eax,0x16bf6
    13d7:	c7 45 fc 00 00 00 00 	mov    DWORD PTR [ebp-0x4],0x0
    13de:	eb 18                	jmp    13f8 <__gmon_start__@plt+0xf30>
    13e0:	87 d2                	xchg   edx,edx
    13e2:	87 c9                	xchg   ecx,ecx
    13e4:	87 ff                	xchg   edi,edi
    13e6:	87 ff                	xchg   edi,edi
    13e8:	87 db                	xchg   ebx,ebx
    13ea:	87 c9                	xchg   ecx,ecx
    13ec:	87 c9                	xchg   ecx,ecx
    13ee:	87 db                	xchg   ebx,ebx
    13f0:	87 d2                	xchg   edx,edx
    13f2:	87 d2                	xchg   edx,edx
    13f4:	83 45 fc 01          	add    DWORD PTR [ebp-0x4],0x1
    13f8:	83 7d fc 0c          	cmp    DWORD PTR [ebp-0x4],0xc
    13fc:	7e e2                	jle    13e0 <__gmon_start__@plt+0xf18>
    13fe:	90                   	nop
    13ff:	c9                   	leave  
    1400:	c3                   	ret    
    1401:	55                   	push   ebp
    1402:	89 e5                	mov    ebp,esp
    1404:	83 ec 10             	sub    esp,0x10
    1407:	e8 d5 f3 ff ff       	call   7e1 <__gmon_start__@plt+0x319>
    140c:	05 bc 6b 01 00       	add    eax,0x16bbc
    1411:	c7 45 fc 00 00 00 00 	mov    DWORD PTR [ebp-0x4],0x0
    1418:	eb 0a                	jmp    1424 <__gmon_start__@plt+0xf5c>
    141a:	87 c9                	xchg   ecx,ecx
    141c:	87 ff                	xchg   edi,edi
    141e:	87 c9                	xchg   ecx,ecx
    1420:	83 45 fc 01          	add    DWORD PTR [ebp-0x4],0x1
    1424:	83 7d fc 00          	cmp    DWORD PTR [ebp-0x4],0x0
    1428:	7e f0                	jle    141a <__gmon_start__@plt+0xf52>
    142a:	90                   	nop
    142b:	c9                   	leave  
    142c:	c3                   	ret    
    142d:	55                   	push   ebp
    142e:	89 e5                	mov    ebp,esp
    1430:	83 ec 10             	sub    esp,0x10
    1433:	e8 a9 f3 ff ff       	call   7e1 <__gmon_start__@plt+0x319>
    1438:	05 90 6b 01 00       	add    eax,0x16b90
    143d:	c7 45 fc 00 00 00 00 	mov    DWORD PTR [ebp-0x4],0x0
    1444:	eb 0c                	jmp    1452 <__gmon_start__@plt+0xf8a>
    1446:	87 c9                	xchg   ecx,ecx
    1448:	87 f6                	xchg   esi,esi
    144a:	87 d2                	xchg   edx,edx
    144c:	87 d2                	xchg   edx,edx
    144e:	83 45 fc 01          	add    DWORD PTR [ebp-0x4],0x1
    1452:	83 7d fc 0f          	cmp    DWORD PTR [ebp-0x4],0xf
    1456:	7e ee                	jle    1446 <__gmon_start__@plt+0xf7e>
    1458:	90                   	nop
    1459:	c9                   	leave  
    145a:	c3                   	ret    
    145b:	55                   	push   ebp
    145c:	89 e5                	mov    ebp,esp
    145e:	83 ec 10             	sub    esp,0x10
    1461:	e8 7b f3 ff ff       	call   7e1 <__gmon_start__@plt+0x319>
    1466:	05 62 6b 01 00       	add    eax,0x16b62
    146b:	c7 45 fc 00 00 00 00 	mov    DWORD PTR [ebp-0x4],0x0
    1472:	eb 06                	jmp    147a <__gmon_start__@plt+0xfb2>
    1474:	87 ff                	xchg   edi,edi
    1476:	83 45 fc 01          	add    DWORD PTR [ebp-0x4],0x1
    147a:	83 7d fc 00          	cmp    DWORD PTR [ebp-0x4],0x0
    147e:	7e f4                	jle    1474 <__gmon_start__@plt+0xfac>
    1480:	90                   	nop
    1481:	c9                   	leave  
    1482:	c3                   	ret    
    1483:	55                   	push   ebp
    1484:	89 e5                	mov    ebp,esp
    1486:	83 ec 10             	sub    esp,0x10
    1489:	e8 53 f3 ff ff       	call   7e1 <__gmon_start__@plt+0x319>
    148e:	05 3a 6b 01 00       	add    eax,0x16b3a
    1493:	c7 45 fc 00 00 00 00 	mov    DWORD PTR [ebp-0x4],0x0
    149a:	eb 0f                	jmp    14ab <__gmon_start__@plt+0xfe3>
    149c:	87 f6                	xchg   esi,esi
    149e:	87 f6                	xchg   esi,esi
    14a0:	87 db                	xchg   ebx,ebx
    14a2:	87 d2                	xchg   edx,edx
    14a4:	87 db                	xchg   ebx,ebx
    14a6:	90                   	nop
    14a7:	83 45 fc 01          	add    DWORD PTR [ebp-0x4],0x1
    14ab:	83 7d fc 0d          	cmp    DWORD PTR [ebp-0x4],0xd
    14af:	7e eb                	jle    149c <__gmon_start__@plt+0xfd4>
    14b1:	90                   	nop
    14b2:	c9                   	leave  
    14b3:	c3                   	ret    
    14b4:	55                   	push   ebp
    14b5:	89 e5                	mov    ebp,esp
    14b7:	83 ec 10             	sub    esp,0x10
    14ba:	e8 22 f3 ff ff       	call   7e1 <__gmon_start__@plt+0x319>
    14bf:	05 09 6b 01 00       	add    eax,0x16b09
    14c4:	c7 45 fc 00 00 00 00 	mov    DWORD PTR [ebp-0x4],0x0
    14cb:	eb 11                	jmp    14de <__gmon_start__@plt+0x1016>
    14cd:	87 ff                	xchg   edi,edi
    14cf:	90                   	nop
    14d0:	87 d2                	xchg   edx,edx
    14d2:	87 db                	xchg   ebx,ebx
    14d4:	90                   	nop
    14d5:	87 c9                	xchg   ecx,ecx
    14d7:	87 d2                	xchg   edx,edx
    14d9:	90                   	nop
    14da:	83 45 fc 01          	add    DWORD PTR [ebp-0x4],0x1
    14de:	83 7d fc 0b          	cmp    DWORD PTR [ebp-0x4],0xb
    14e2:	7e e9                	jle    14cd <__gmon_start__@plt+0x1005>
    14e4:	90                   	nop
    14e5:	c9                   	leave  
    14e6:	c3                   	ret    
    14e7:	55                   	push   ebp
    14e8:	89 e5                	mov    ebp,esp
    14ea:	83 ec 10             	sub    esp,0x10
    14ed:	e8 ef f2 ff ff       	call   7e1 <__gmon_start__@plt+0x319>
    14f2:	05 d6 6a 01 00       	add    eax,0x16ad6
    14f7:	c7 45 fc 00 00 00 00 	mov    DWORD PTR [ebp-0x4],0x0
    14fe:	eb 13                	jmp    1513 <__gmon_start__@plt+0x104b>
    1500:	87 d2                	xchg   edx,edx
    1502:	87 d2                	xchg   edx,edx
    1504:	87 c9                	xchg   ecx,ecx
    1506:	87 ff                	xchg   edi,edi
    1508:	90                   	nop
    1509:	87 ff                	xchg   edi,edi
    150b:	87 f6                	xchg   esi,esi
    150d:	87 c9                	xchg   ecx,ecx
    150f:	83 45 fc 01          	add    DWORD PTR [ebp-0x4],0x1
    1513:	83 7d fc 0f          	cmp    DWORD PTR [ebp-0x4],0xf
    1517:	7e e7                	jle    1500 <__gmon_start__@plt+0x1038>
    1519:	90                   	nop
    151a:	c9                   	leave  
    151b:	c3                   	ret    
    151c:	55                   	push   ebp
    151d:	89 e5                	mov    ebp,esp
    151f:	83 ec 10             	sub    esp,0x10
    1522:	e8 ba f2 ff ff       	call   7e1 <__gmon_start__@plt+0x319>
    1527:	05 a1 6a 01 00       	add    eax,0x16aa1
    152c:	c7 45 fc 00 00 00 00 	mov    DWORD PTR [ebp-0x4],0x0
    1533:	eb 0f                	jmp    1544 <__gmon_start__@plt+0x107c>
    1535:	90                   	nop
    1536:	87 f6                	xchg   esi,esi
    1538:	87 c9                	xchg   ecx,ecx
    153a:	87 d2                	xchg   edx,edx
    153c:	87 c9                	xchg   ecx,ecx
    153e:	87 d2                	xchg   edx,edx
    1540:	83 45 fc 01          	add    DWORD PTR [ebp-0x4],0x1
    1544:	83 7d fc 14          	cmp    DWORD PTR [ebp-0x4],0x14
    1548:	7e eb                	jle    1535 <__gmon_start__@plt+0x106d>
    154a:	90                   	nop
    154b:	c9                   	leave  
    154c:	c3                   	ret    
    154d:	55                   	push   ebp
    154e:	89 e5                	mov    ebp,esp
    1550:	83 ec 10             	sub    esp,0x10
    1553:	e8 89 f2 ff ff       	call   7e1 <__gmon_start__@plt+0x319>
    1558:	05 70 6a 01 00       	add    eax,0x16a70
    155d:	c7 45 fc 00 00 00 00 	mov    DWORD PTR [ebp-0x4],0x0
    1564:	eb 0d                	jmp    1573 <__gmon_start__@plt+0x10ab>
    1566:	90                   	nop
    1567:	90                   	nop
    1568:	90                   	nop
    1569:	90                   	nop
    156a:	87 f6                	xchg   esi,esi
    156c:	90                   	nop
    156d:	87 c9                	xchg   ecx,ecx
    156f:	83 45 fc 01          	add    DWORD PTR [ebp-0x4],0x1
    1573:	83 7d fc 12          	cmp    DWORD PTR [ebp-0x4],0x12
    1577:	7e ed                	jle    1566 <__gmon_start__@plt+0x109e>
    1579:	90                   	nop
    157a:	c9                   	leave  
    157b:	c3                   	ret    
    157c:	55                   	push   ebp
    157d:	89 e5                	mov    ebp,esp
    157f:	83 ec 10             	sub    esp,0x10
    1582:	e8 5a f2 ff ff       	call   7e1 <__gmon_start__@plt+0x319>
    1587:	05 41 6a 01 00       	add    eax,0x16a41
    158c:	c7 45 fc 00 00 00 00 	mov    DWORD PTR [ebp-0x4],0x0
    1593:	eb 08                	jmp    159d <__gmon_start__@plt+0x10d5>
    1595:	87 d2                	xchg   edx,edx
    1597:	87 c9                	xchg   ecx,ecx
    1599:	83 45 fc 01          	add    DWORD PTR [ebp-0x4],0x1
    159d:	83 7d fc 01          	cmp    DWORD PTR [ebp-0x4],0x1
    15a1:	7e f2                	jle    1595 <__gmon_start__@plt+0x10cd>
    15a3:	90                   	nop
    15a4:	c9                   	leave  
    15a5:	c3                   	ret    
    15a6:	55                   	push   ebp
    15a7:	89 e5                	mov    ebp,esp
    15a9:	83 ec 10             	sub    esp,0x10
    15ac:	e8 30 f2 ff ff       	call   7e1 <__gmon_start__@plt+0x319>
    15b1:	05 17 6a 01 00       	add    eax,0x16a17
    15b6:	c7 45 fc 00 00 00 00 	mov    DWORD PTR [ebp-0x4],0x0
    15bd:	eb 0c                	jmp    15cb <__gmon_start__@plt+0x1103>
    15bf:	90                   	nop
    15c0:	90                   	nop
    15c1:	87 ff                	xchg   edi,edi
    15c3:	87 db                	xchg   ebx,ebx
    15c5:	87 d2                	xchg   edx,edx
    15c7:	83 45 fc 01          	add    DWORD PTR [ebp-0x4],0x1
    15cb:	83 7d fc 03          	cmp    DWORD PTR [ebp-0x4],0x3
    15cf:	7e ee                	jle    15bf <__gmon_start__@plt+0x10f7>
    15d1:	90                   	nop
    15d2:	c9                   	leave  
    15d3:	c3                   	ret    
    15d4:	55                   	push   ebp
    15d5:	89 e5                	mov    ebp,esp
    15d7:	83 ec 10             	sub    esp,0x10
    15da:	e8 02 f2 ff ff       	call   7e1 <__gmon_start__@plt+0x319>
    15df:	05 e9 69 01 00       	add    eax,0x169e9
    15e4:	c7 45 fc 00 00 00 00 	mov    DWORD PTR [ebp-0x4],0x0
    15eb:	eb 10                	jmp    15fd <__gmon_start__@plt+0x1135>
    15ed:	87 d2                	xchg   edx,edx
    15ef:	87 f6                	xchg   esi,esi
    15f1:	87 ff                	xchg   edi,edi
    15f3:	87 db                	xchg   ebx,ebx
    15f5:	90                   	nop
    15f6:	87 ff                	xchg   edi,edi
    15f8:	90                   	nop
    15f9:	83 45 fc 01          	add    DWORD PTR [ebp-0x4],0x1
    15fd:	83 7d fc 10          	cmp    DWORD PTR [ebp-0x4],0x10
    1601:	7e ea                	jle    15ed <__gmon_start__@plt+0x1125>
    1603:	90                   	nop
    1604:	c9                   	leave  
    1605:	c3                   	ret    
    1606:	55                   	push   ebp
    1607:	89 e5                	mov    ebp,esp
    1609:	83 ec 10             	sub    esp,0x10
    160c:	e8 d0 f1 ff ff       	call   7e1 <__gmon_start__@plt+0x319>
    1611:	05 b7 69 01 00       	add    eax,0x169b7
    1616:	c7 45 fc 00 00 00 00 	mov    DWORD PTR [ebp-0x4],0x0
    161d:	eb 18                	jmp    1637 <__gmon_start__@plt+0x116f>
    161f:	87 d2                	xchg   edx,edx
    1621:	87 f6                	xchg   esi,esi
    1623:	87 f6                	xchg   esi,esi
    1625:	87 c9                	xchg   ecx,ecx
    1627:	87 db                	xchg   ebx,ebx
    1629:	87 f6                	xchg   esi,esi
    162b:	87 c9                	xchg   ecx,ecx
    162d:	87 c9                	xchg   ecx,ecx
    162f:	90                   	nop
    1630:	90                   	nop
    1631:	87 f6                	xchg   esi,esi
    1633:	83 45 fc 01          	add    DWORD PTR [ebp-0x4],0x1
    1637:	83 7d fc 03          	cmp    DWORD PTR [ebp-0x4],0x3
    163b:	7e e2                	jle    161f <__gmon_start__@plt+0x1157>
    163d:	90                   	nop
    163e:	c9                   	leave  
    163f:	c3                   	ret    
    1640:	55                   	push   ebp
    1641:	89 e5                	mov    ebp,esp
    1643:	83 ec 10             	sub    esp,0x10
    1646:	e8 96 f1 ff ff       	call   7e1 <__gmon_start__@plt+0x319>
    164b:	05 7d 69 01 00       	add    eax,0x1697d
    1650:	c7 45 fc 00 00 00 00 	mov    DWORD PTR [ebp-0x4],0x0
    1657:	eb 14                	jmp    166d <__gmon_start__@plt+0x11a5>
    1659:	87 d2                	xchg   edx,edx
    165b:	90                   	nop
    165c:	87 d2                	xchg   edx,edx
    165e:	87 db                	xchg   ebx,ebx
    1660:	87 ff                	xchg   edi,edi
    1662:	90                   	nop
    1663:	87 d2                	xchg   edx,edx
    1665:	87 d2                	xchg   edx,edx
    1667:	87 ff                	xchg   edi,edi
    1669:	83 45 fc 01          	add    DWORD PTR [ebp-0x4],0x1
    166d:	83 7d fc 10          	cmp    DWORD PTR [ebp-0x4],0x10
    1671:	7e e6                	jle    1659 <__gmon_start__@plt+0x1191>
    1673:	90                   	nop
    1674:	c9                   	leave  
    1675:	c3                   	ret    
    1676:	55                   	push   ebp
    1677:	89 e5                	mov    ebp,esp
    1679:	83 ec 10             	sub    esp,0x10
    167c:	e8 60 f1 ff ff       	call   7e1 <__gmon_start__@plt+0x319>
    1681:	05 47 69 01 00       	add    eax,0x16947
    1686:	c7 45 fc 00 00 00 00 	mov    DWORD PTR [ebp-0x4],0x0
    168d:	eb 0b                	jmp    169a <__gmon_start__@plt+0x11d2>
    168f:	87 c9                	xchg   ecx,ecx
    1691:	90                   	nop
    1692:	87 db                	xchg   ebx,ebx
    1694:	90                   	nop
    1695:	90                   	nop
    1696:	83 45 fc 01          	add    DWORD PTR [ebp-0x4],0x1
    169a:	83 7d fc 0e          	cmp    DWORD PTR [ebp-0x4],0xe
    169e:	7e ef                	jle    168f <__gmon_start__@plt+0x11c7>
    16a0:	90                   	nop
    16a1:	c9                   	leave  
    16a2:	c3                   	ret    
    16a3:	55                   	push   ebp
    16a4:	89 e5                	mov    ebp,esp
    16a6:	83 ec 10             	sub    esp,0x10
    16a9:	e8 33 f1 ff ff       	call   7e1 <__gmon_start__@plt+0x319>
    16ae:	05 1a 69 01 00       	add    eax,0x1691a
    16b3:	c7 45 fc 00 00 00 00 	mov    DWORD PTR [ebp-0x4],0x0
    16ba:	eb 06                	jmp    16c2 <__gmon_start__@plt+0x11fa>
    16bc:	87 c9                	xchg   ecx,ecx
    16be:	83 45 fc 01          	add    DWORD PTR [ebp-0x4],0x1
    16c2:	83 7d fc 0b          	cmp    DWORD PTR [ebp-0x4],0xb
    16c6:	7e f4                	jle    16bc <__gmon_start__@plt+0x11f4>
    16c8:	90                   	nop
    16c9:	c9                   	leave  
    16ca:	c3                   	ret    
    16cb:	55                   	push   ebp
    16cc:	89 e5                	mov    ebp,esp
    16ce:	83 ec 10             	sub    esp,0x10
    16d1:	e8 0b f1 ff ff       	call   7e1 <__gmon_start__@plt+0x319>
    16d6:	05 f2 68 01 00       	add    eax,0x168f2
    16db:	c7 45 fc 00 00 00 00 	mov    DWORD PTR [ebp-0x4],0x0
    16e2:	eb 13                	jmp    16f7 <__gmon_start__@plt+0x122f>
    16e4:	87 c9                	xchg   ecx,ecx
    16e6:	90                   	nop
    16e7:	87 d2                	xchg   edx,edx
    16e9:	90                   	nop
    16ea:	87 d2                	xchg   edx,edx
    16ec:	90                   	nop
    16ed:	87 c9                	xchg   ecx,ecx
    16ef:	90                   	nop
    16f0:	90                   	nop
    16f1:	90                   	nop
    16f2:	90                   	nop
    16f3:	83 45 fc 01          	add    DWORD PTR [ebp-0x4],0x1
    16f7:	83 7d fc 0f          	cmp    DWORD PTR [ebp-0x4],0xf
    16fb:	7e e7                	jle    16e4 <__gmon_start__@plt+0x121c>
    16fd:	90                   	nop
    16fe:	c9                   	leave  
    16ff:	c3                   	ret    
    1700:	55                   	push   ebp
    1701:	89 e5                	mov    ebp,esp
    1703:	83 ec 10             	sub    esp,0x10
    1706:	e8 d6 f0 ff ff       	call   7e1 <__gmon_start__@plt+0x319>
    170b:	05 bd 68 01 00       	add    eax,0x168bd
    1710:	c7 45 fc 00 00 00 00 	mov    DWORD PTR [ebp-0x4],0x0
    1717:	eb 14                	jmp    172d <__gmon_start__@plt+0x1265>
    1719:	90                   	nop
    171a:	87 d2                	xchg   edx,edx
    171c:	87 d2                	xchg   edx,edx
    171e:	87 ff                	xchg   edi,edi
    1720:	87 c9                	xchg   ecx,ecx
    1722:	90                   	nop
    1723:	87 f6                	xchg   esi,esi
    1725:	87 db                	xchg   ebx,ebx
    1727:	87 ff                	xchg   edi,edi
    1729:	83 45 fc 01          	add    DWORD PTR [ebp-0x4],0x1
    172d:	83 7d fc 0d          	cmp    DWORD PTR [ebp-0x4],0xd
    1731:	7e e6                	jle    1719 <__gmon_start__@plt+0x1251>
    1733:	90                   	nop
    1734:	c9                   	leave  
    1735:	c3                   	ret    
    1736:	55                   	push   ebp
    1737:	89 e5                	mov    ebp,esp
    1739:	83 ec 10             	sub    esp,0x10
    173c:	e8 a0 f0 ff ff       	call   7e1 <__gmon_start__@plt+0x319>
    1741:	05 87 68 01 00       	add    eax,0x16887
    1746:	c7 45 fc 00 00 00 00 	mov    DWORD PTR [ebp-0x4],0x0
    174d:	eb 14                	jmp    1763 <__gmon_start__@plt+0x129b>
    174f:	87 db                	xchg   ebx,ebx
    1751:	87 c9                	xchg   ecx,ecx
    1753:	87 f6                	xchg   esi,esi
    1755:	87 f6                	xchg   esi,esi
    1757:	87 db                	xchg   ebx,ebx
    1759:	87 ff                	xchg   edi,edi
    175b:	87 c9                	xchg   ecx,ecx
    175d:	87 d2                	xchg   edx,edx
    175f:	83 45 fc 01          	add    DWORD PTR [ebp-0x4],0x1
    1763:	83 7d fc 07          	cmp    DWORD PTR [ebp-0x4],0x7
    1767:	7e e6                	jle    174f <__gmon_start__@plt+0x1287>
    1769:	90                   	nop
    176a:	c9                   	leave  
    176b:	c3                   	ret    
    176c:	55                   	push   ebp
    176d:	89 e5                	mov    ebp,esp
    176f:	83 ec 10             	sub    esp,0x10
    1772:	e8 6a f0 ff ff       	call   7e1 <__gmon_start__@plt+0x319>
    1777:	05 51 68 01 00       	add    eax,0x16851
    177c:	c7 45 fc 00 00 00 00 	mov    DWORD PTR [ebp-0x4],0x0
    1783:	eb 12                	jmp    1797 <__gmon_start__@plt+0x12cf>
    1785:	87 c9                	xchg   ecx,ecx
    1787:	90                   	nop
    1788:	90                   	nop
    1789:	87 f6                	xchg   esi,esi
    178b:	87 f6                	xchg   esi,esi
    178d:	87 d2                	xchg   edx,edx
    178f:	87 d2                	xchg   edx,edx
    1791:	87 d2                	xchg   edx,edx
    1793:	83 45 fc 01          	add    DWORD PTR [ebp-0x4],0x1
    1797:	83 7d fc 10          	cmp    DWORD PTR [ebp-0x4],0x10
    179b:	7e e8                	jle    1785 <__gmon_start__@plt+0x12bd>
    179d:	90                   	nop
    179e:	c9                   	leave  
    179f:	c3                   	ret    
    17a0:	55                   	push   ebp
    17a1:	89 e5                	mov    ebp,esp
    17a3:	83 ec 10             	sub    esp,0x10
    17a6:	e8 36 f0 ff ff       	call   7e1 <__gmon_start__@plt+0x319>
    17ab:	05 1d 68 01 00       	add    eax,0x1681d
    17b0:	c7 45 fc 00 00 00 00 	mov    DWORD PTR [ebp-0x4],0x0
    17b7:	eb 11                	jmp    17ca <__gmon_start__@plt+0x1302>
    17b9:	87 d2                	xchg   edx,edx
    17bb:	90                   	nop
    17bc:	87 f6                	xchg   esi,esi
    17be:	90                   	nop
    17bf:	87 f6                	xchg   esi,esi
    17c1:	87 f6                	xchg   esi,esi
    17c3:	90                   	nop
    17c4:	87 d2                	xchg   edx,edx
    17c6:	83 45 fc 01          	add    DWORD PTR [ebp-0x4],0x1
    17ca:	83 7d fc 02          	cmp    DWORD PTR [ebp-0x4],0x2
    17ce:	7e e9                	jle    17b9 <__gmon_start__@plt+0x12f1>
    17d0:	90                   	nop
    17d1:	c9                   	leave  
    17d2:	c3                   	ret    
    17d3:	55                   	push   ebp
    17d4:	89 e5                	mov    ebp,esp
    17d6:	83 ec 10             	sub    esp,0x10
    17d9:	e8 03 f0 ff ff       	call   7e1 <__gmon_start__@plt+0x319>
    17de:	05 ea 67 01 00       	add    eax,0x167ea
    17e3:	c7 45 fc 00 00 00 00 	mov    DWORD PTR [ebp-0x4],0x0
    17ea:	eb 0b                	jmp    17f7 <__gmon_start__@plt+0x132f>
    17ec:	87 f6                	xchg   esi,esi
    17ee:	90                   	nop
    17ef:	87 d2                	xchg   edx,edx
    17f1:	87 db                	xchg   ebx,ebx
    17f3:	83 45 fc 01          	add    DWORD PTR [ebp-0x4],0x1
    17f7:	83 7d fc 0e          	cmp    DWORD PTR [ebp-0x4],0xe
    17fb:	7e ef                	jle    17ec <__gmon_start__@plt+0x1324>
    17fd:	90                   	nop
    17fe:	c9                   	leave  
    17ff:	c3                   	ret    
    1800:	55                   	push   ebp
    1801:	89 e5                	mov    ebp,esp
    1803:	83 ec 10             	sub    esp,0x10
    1806:	e8 d6 ef ff ff       	call   7e1 <__gmon_start__@plt+0x319>
    180b:	05 bd 67 01 00       	add    eax,0x167bd
    1810:	c7 45 fc 00 00 00 00 	mov    DWORD PTR [ebp-0x4],0x0
    1817:	eb 06                	jmp    181f <__gmon_start__@plt+0x1357>
    1819:	87 f6                	xchg   esi,esi
    181b:	83 45 fc 01          	add    DWORD PTR [ebp-0x4],0x1
    181f:	83 7d fc 07          	cmp    DWORD PTR [ebp-0x4],0x7
    1823:	7e f4                	jle    1819 <__gmon_start__@plt+0x1351>
    1825:	90                   	nop
    1826:	c9                   	leave  
    1827:	c3                   	ret    
    1828:	55                   	push   ebp
    1829:	89 e5                	mov    ebp,esp
    182b:	83 ec 10             	sub    esp,0x10
    182e:	e8 ae ef ff ff       	call   7e1 <__gmon_start__@plt+0x319>
    1833:	05 95 67 01 00       	add    eax,0x16795
    1838:	c7 45 fc 00 00 00 00 	mov    DWORD PTR [ebp-0x4],0x0
    183f:	eb 0c                	jmp    184d <__gmon_start__@plt+0x1385>
    1841:	87 f6                	xchg   esi,esi
    1843:	87 db                	xchg   ebx,ebx
    1845:	90                   	nop
    1846:	90                   	nop
    1847:	87 db                	xchg   ebx,ebx
    1849:	83 45 fc 01          	add    DWORD PTR [ebp-0x4],0x1
    184d:	83 7d fc 12          	cmp    DWORD PTR [ebp-0x4],0x12
    1851:	7e ee                	jle    1841 <__gmon_start__@plt+0x1379>
    1853:	90                   	nop
    1854:	c9                   	leave  
    1855:	c3                   	ret    
    1856:	55                   	push   ebp
    1857:	89 e5                	mov    ebp,esp
    1859:	83 ec 10             	sub    esp,0x10
    185c:	e8 80 ef ff ff       	call   7e1 <__gmon_start__@plt+0x319>
    1861:	05 67 67 01 00       	add    eax,0x16767
    1866:	c7 45 fc 00 00 00 00 	mov    DWORD PTR [ebp-0x4],0x0
    186d:	eb 09                	jmp    1878 <__gmon_start__@plt+0x13b0>
    186f:	87 d2                	xchg   edx,edx
    1871:	90                   	nop
    1872:	87 c9                	xchg   ecx,ecx
    1874:	83 45 fc 01          	add    DWORD PTR [ebp-0x4],0x1
    1878:	83 7d fc 0f          	cmp    DWORD PTR [ebp-0x4],0xf
    187c:	7e f1                	jle    186f <__gmon_start__@plt+0x13a7>
    187e:	90                   	nop
    187f:	c9                   	leave  
    1880:	c3                   	ret    
    1881:	55                   	push   ebp
    1882:	89 e5                	mov    ebp,esp
    1884:	83 ec 10             	sub    esp,0x10
    1887:	e8 55 ef ff ff       	call   7e1 <__gmon_start__@plt+0x319>
    188c:	05 3c 67 01 00       	add    eax,0x1673c
    1891:	c7 45 fc 00 00 00 00 	mov    DWORD PTR [ebp-0x4],0x0
    1898:	eb 16                	jmp    18b0 <__gmon_start__@plt+0x13e8>
    189a:	87 db                	xchg   ebx,ebx
    189c:	87 db                	xchg   ebx,ebx
    189e:	87 d2                	xchg   edx,edx
    18a0:	90                   	nop
    18a1:	87 c9                	xchg   ecx,ecx
    18a3:	87 d2                	xchg   edx,edx
    18a5:	87 d2                	xchg   edx,edx
    18a7:	90                   	nop
    18a8:	87 d2                	xchg   edx,edx
    18aa:	87 f6                	xchg   esi,esi
    18ac:	83 45 fc 01          	add    DWORD PTR [ebp-0x4],0x1
    18b0:	83 7d fc 14          	cmp    DWORD PTR [ebp-0x4],0x14
    18b4:	7e e4                	jle    189a <__gmon_start__@plt+0x13d2>
    18b6:	90                   	nop
    18b7:	c9                   	leave  
    18b8:	c3                   	ret    
    18b9:	55                   	push   ebp
    18ba:	89 e5                	mov    ebp,esp
    18bc:	83 ec 10             	sub    esp,0x10
    18bf:	e8 1d ef ff ff       	call   7e1 <__gmon_start__@plt+0x319>
    18c4:	05 04 67 01 00       	add    eax,0x16704
    18c9:	c7 45 fc 00 00 00 00 	mov    DWORD PTR [ebp-0x4],0x0
    18d0:	eb 10                	jmp    18e2 <__gmon_start__@plt+0x141a>
    18d2:	90                   	nop
    18d3:	87 c9                	xchg   ecx,ecx
    18d5:	90                   	nop
    18d6:	90                   	nop
    18d7:	87 c9                	xchg   ecx,ecx
    18d9:	87 ff                	xchg   edi,edi
    18db:	87 d2                	xchg   edx,edx
    18dd:	90                   	nop
    18de:	83 45 fc 01          	add    DWORD PTR [ebp-0x4],0x1
    18e2:	83 7d fc 09          	cmp    DWORD PTR [ebp-0x4],0x9
    18e6:	7e ea                	jle    18d2 <__gmon_start__@plt+0x140a>
    18e8:	90                   	nop
    18e9:	c9                   	leave  
    18ea:	c3                   	ret    
    18eb:	55                   	push   ebp
    18ec:	89 e5                	mov    ebp,esp
    18ee:	83 ec 10             	sub    esp,0x10
    18f1:	e8 eb ee ff ff       	call   7e1 <__gmon_start__@plt+0x319>
    18f6:	05 d2 66 01 00       	add    eax,0x166d2
    18fb:	c7 45 fc 00 00 00 00 	mov    DWORD PTR [ebp-0x4],0x0
    1902:	eb 07                	jmp    190b <__gmon_start__@plt+0x1443>
    1904:	90                   	nop
    1905:	87 d2                	xchg   edx,edx
    1907:	83 45 fc 01          	add    DWORD PTR [ebp-0x4],0x1
    190b:	83 7d fc 0b          	cmp    DWORD PTR [ebp-0x4],0xb
    190f:	7e f3                	jle    1904 <__gmon_start__@plt+0x143c>
    1911:	90                   	nop
    1912:	c9                   	leave  
    1913:	c3                   	ret    
    1914:	55                   	push   ebp
    1915:	89 e5                	mov    ebp,esp
    1917:	83 ec 10             	sub    esp,0x10
    191a:	e8 c2 ee ff ff       	call   7e1 <__gmon_start__@plt+0x319>
    191f:	05 a9 66 01 00       	add    eax,0x166a9
    1924:	c7 45 fc 00 00 00 00 	mov    DWORD PTR [ebp-0x4],0x0
    192b:	eb 0a                	jmp    1937 <__gmon_start__@plt+0x146f>
    192d:	87 ff                	xchg   edi,edi
    192f:	87 d2                	xchg   edx,edx
    1931:	87 c9                	xchg   ecx,ecx
    1933:	83 45 fc 01          	add    DWORD PTR [ebp-0x4],0x1
    1937:	83 7d fc 10          	cmp    DWORD PTR [ebp-0x4],0x10
    193b:	7e f0                	jle    192d <__gmon_start__@plt+0x1465>
    193d:	90                   	nop
    193e:	c9                   	leave  
    193f:	c3                   	ret    
    1940:	55                   	push   ebp
    1941:	89 e5                	mov    ebp,esp
    1943:	83 ec 10             	sub    esp,0x10
    1946:	e8 96 ee ff ff       	call   7e1 <__gmon_start__@plt+0x319>
    194b:	05 7d 66 01 00       	add    eax,0x1667d
    1950:	c7 45 fc 00 00 00 00 	mov    DWORD PTR [ebp-0x4],0x0
    1957:	eb 19                	jmp    1972 <__gmon_start__@plt+0x14aa>
    1959:	90                   	nop
    195a:	87 db                	xchg   ebx,ebx
    195c:	87 db                	xchg   ebx,ebx
    195e:	87 ff                	xchg   edi,edi
    1960:	87 d2                	xchg   edx,edx
    1962:	87 db                	xchg   ebx,ebx
    1964:	87 d2                	xchg   edx,edx
    1966:	87 f6                	xchg   esi,esi
    1968:	87 ff                	xchg   edi,edi
    196a:	87 d2                	xchg   edx,edx
    196c:	87 d2                	xchg   edx,edx
    196e:	83 45 fc 01          	add    DWORD PTR [ebp-0x4],0x1
    1972:	83 7d fc 03          	cmp    DWORD PTR [ebp-0x4],0x3
    1976:	7e e1                	jle    1959 <__gmon_start__@plt+0x1491>
    1978:	90                   	nop
    1979:	c9                   	leave  
    197a:	c3                   	ret    
    197b:	55                   	push   ebp
    197c:	89 e5                	mov    ebp,esp
    197e:	83 ec 10             	sub    esp,0x10
    1981:	e8 5b ee ff ff       	call   7e1 <__gmon_start__@plt+0x319>
    1986:	05 42 66 01 00       	add    eax,0x16642
    198b:	c7 45 fc 00 00 00 00 	mov    DWORD PTR [ebp-0x4],0x0
    1992:	eb 10                	jmp    19a4 <__gmon_start__@plt+0x14dc>
    1994:	87 ff                	xchg   edi,edi
    1996:	87 ff                	xchg   edi,edi
    1998:	87 ff                	xchg   edi,edi
    199a:	90                   	nop
    199b:	90                   	nop
    199c:	87 f6                	xchg   esi,esi
    199e:	87 d2                	xchg   edx,edx
    19a0:	83 45 fc 01          	add    DWORD PTR [ebp-0x4],0x1
    19a4:	83 7d fc 03          	cmp    DWORD PTR [ebp-0x4],0x3
    19a8:	7e ea                	jle    1994 <__gmon_start__@plt+0x14cc>
    19aa:	90                   	nop
    19ab:	c9                   	leave  
    19ac:	c3                   	ret    
    19ad:	55                   	push   ebp
    19ae:	89 e5                	mov    ebp,esp
    19b0:	83 ec 10             	sub    esp,0x10
    19b3:	e8 29 ee ff ff       	call   7e1 <__gmon_start__@plt+0x319>
    19b8:	05 10 66 01 00       	add    eax,0x16610
    19bd:	c7 45 fc 00 00 00 00 	mov    DWORD PTR [ebp-0x4],0x0
    19c4:	eb 15                	jmp    19db <__gmon_start__@plt+0x1513>
    19c6:	87 ff                	xchg   edi,edi
    19c8:	87 db                	xchg   ebx,ebx
    19ca:	87 f6                	xchg   esi,esi
    19cc:	90                   	nop
    19cd:	87 f6                	xchg   esi,esi
    19cf:	87 ff                	xchg   edi,edi
    19d1:	87 c9                	xchg   ecx,ecx
    19d3:	87 db                	xchg   ebx,ebx
    19d5:	87 db                	xchg   ebx,ebx
    19d7:	83 45 fc 01          	add    DWORD PTR [ebp-0x4],0x1
    19db:	83 7d fc 11          	cmp    DWORD PTR [ebp-0x4],0x11
    19df:	7e e5                	jle    19c6 <__gmon_start__@plt+0x14fe>
    19e1:	90                   	nop
    19e2:	c9                   	leave  
    19e3:	c3                   	ret    
    19e4:	55                   	push   ebp
    19e5:	89 e5                	mov    ebp,esp
    19e7:	83 ec 10             	sub    esp,0x10
    19ea:	e8 f2 ed ff ff       	call   7e1 <__gmon_start__@plt+0x319>
    19ef:	05 d9 65 01 00       	add    eax,0x165d9
    19f4:	c7 45 fc 00 00 00 00 	mov    DWORD PTR [ebp-0x4],0x0
    19fb:	eb 0c                	jmp    1a09 <__gmon_start__@plt+0x1541>
    19fd:	90                   	nop
    19fe:	87 d2                	xchg   edx,edx
    1a00:	90                   	nop
    1a01:	87 f6                	xchg   esi,esi
    1a03:	87 ff                	xchg   edi,edi
    1a05:	83 45 fc 01          	add    DWORD PTR [ebp-0x4],0x1
    1a09:	83 7d fc 0e          	cmp    DWORD PTR [ebp-0x4],0xe
    1a0d:	7e ee                	jle    19fd <__gmon_start__@plt+0x1535>
    1a0f:	90                   	nop
    1a10:	c9                   	leave  
    1a11:	c3                   	ret    
    1a12:	55                   	push   ebp
    1a13:	89 e5                	mov    ebp,esp
    1a15:	83 ec 10             	sub    esp,0x10
    1a18:	e8 c4 ed ff ff       	call   7e1 <__gmon_start__@plt+0x319>
    1a1d:	05 ab 65 01 00       	add    eax,0x165ab
    1a22:	c7 45 fc 00 00 00 00 	mov    DWORD PTR [ebp-0x4],0x0
    1a29:	eb 08                	jmp    1a33 <__gmon_start__@plt+0x156b>
    1a2b:	87 db                	xchg   ebx,ebx
    1a2d:	90                   	nop
    1a2e:	90                   	nop
    1a2f:	83 45 fc 01          	add    DWORD PTR [ebp-0x4],0x1
    1a33:	83 7d fc 01          	cmp    DWORD PTR [ebp-0x4],0x1
    1a37:	7e f2                	jle    1a2b <__gmon_start__@plt+0x1563>
    1a39:	90                   	nop
    1a3a:	c9                   	leave  
    1a3b:	c3                   	ret    
    1a3c:	55                   	push   ebp
    1a3d:	89 e5                	mov    ebp,esp
    1a3f:	83 ec 10             	sub    esp,0x10
    1a42:	e8 9a ed ff ff       	call   7e1 <__gmon_start__@plt+0x319>
    1a47:	05 81 65 01 00       	add    eax,0x16581
    1a4c:	c7 45 fc 00 00 00 00 	mov    DWORD PTR [ebp-0x4],0x0
    1a53:	eb 0c                	jmp    1a61 <__gmon_start__@plt+0x1599>
    1a55:	87 ff                	xchg   edi,edi
    1a57:	87 c9                	xchg   ecx,ecx
    1a59:	87 db                	xchg   ebx,ebx
    1a5b:	87 d2                	xchg   edx,edx
    1a5d:	83 45 fc 01          	add    DWORD PTR [ebp-0x4],0x1
    1a61:	83 7d fc 04          	cmp    DWORD PTR [ebp-0x4],0x4
    1a65:	7e ee                	jle    1a55 <__gmon_start__@plt+0x158d>
    1a67:	90                   	nop
    1a68:	c9                   	leave  
    1a69:	c3                   	ret    
    1a6a:	55                   	push   ebp
    1a6b:	89 e5                	mov    ebp,esp
    1a6d:	83 ec 10             	sub    esp,0x10
    1a70:	e8 6c ed ff ff       	call   7e1 <__gmon_start__@plt+0x319>
    1a75:	05 53 65 01 00       	add    eax,0x16553
    1a7a:	c7 45 fc 00 00 00 00 	mov    DWORD PTR [ebp-0x4],0x0
    1a81:	eb 11                	jmp    1a94 <__gmon_start__@plt+0x15cc>
    1a83:	90                   	nop
    1a84:	87 ff                	xchg   edi,edi
    1a86:	87 f6                	xchg   esi,esi
    1a88:	87 d2                	xchg   edx,edx
    1a8a:	87 d2                	xchg   edx,edx
    1a8c:	87 f6                	xchg   esi,esi
    1a8e:	87 d2                	xchg   edx,edx
    1a90:	83 45 fc 01          	add    DWORD PTR [ebp-0x4],0x1
    1a94:	83 7d fc 13          	cmp    DWORD PTR [ebp-0x4],0x13
    1a98:	7e e9                	jle    1a83 <__gmon_start__@plt+0x15bb>
    1a9a:	90                   	nop
    1a9b:	c9                   	leave  
    1a9c:	c3                   	ret    
    1a9d:	55                   	push   ebp
    1a9e:	89 e5                	mov    ebp,esp
    1aa0:	83 ec 10             	sub    esp,0x10
    1aa3:	e8 39 ed ff ff       	call   7e1 <__gmon_start__@plt+0x319>
    1aa8:	05 20 65 01 00       	add    eax,0x16520
    1aad:	c7 45 fc 00 00 00 00 	mov    DWORD PTR [ebp-0x4],0x0
    1ab4:	eb 17                	jmp    1acd <__gmon_start__@plt+0x1605>
    1ab6:	87 f6                	xchg   esi,esi
    1ab8:	90                   	nop
    1ab9:	87 c9                	xchg   ecx,ecx
    1abb:	87 d2                	xchg   edx,edx
    1abd:	87 d2                	xchg   edx,edx
    1abf:	87 db                	xchg   ebx,ebx
    1ac1:	87 c9                	xchg   ecx,ecx
    1ac3:	87 db                	xchg   ebx,ebx
    1ac5:	87 c9                	xchg   ecx,ecx
    1ac7:	87 db                	xchg   ebx,ebx
    1ac9:	83 45 fc 01          	add    DWORD PTR [ebp-0x4],0x1
    1acd:	83 7d fc 10          	cmp    DWORD PTR [ebp-0x4],0x10
    1ad1:	7e e3                	jle    1ab6 <__gmon_start__@plt+0x15ee>
    1ad3:	90                   	nop
    1ad4:	c9                   	leave  
    1ad5:	c3                   	ret    
    1ad6:	55                   	push   ebp
    1ad7:	89 e5                	mov    ebp,esp
    1ad9:	83 ec 10             	sub    esp,0x10
    1adc:	e8 00 ed ff ff       	call   7e1 <__gmon_start__@plt+0x319>
    1ae1:	05 e7 64 01 00       	add    eax,0x164e7
    1ae6:	c7 45 fc 00 00 00 00 	mov    DWORD PTR [ebp-0x4],0x0
    1aed:	eb 0c                	jmp    1afb <__gmon_start__@plt+0x1633>
    1aef:	87 d2                	xchg   edx,edx
    1af1:	87 c9                	xchg   ecx,ecx
    1af3:	87 db                	xchg   ebx,ebx
    1af5:	87 d2                	xchg   edx,edx
    1af7:	83 45 fc 01          	add    DWORD PTR [ebp-0x4],0x1
    1afb:	83 7d fc 00          	cmp    DWORD PTR [ebp-0x4],0x0
    1aff:	7e ee                	jle    1aef <__gmon_start__@plt+0x1627>
    1b01:	90                   	nop
    1b02:	c9                   	leave  
    1b03:	c3                   	ret    
    1b04:	55                   	push   ebp
    1b05:	89 e5                	mov    ebp,esp
    1b07:	83 ec 10             	sub    esp,0x10
    1b0a:	e8 d2 ec ff ff       	call   7e1 <__gmon_start__@plt+0x319>
    1b0f:	05 b9 64 01 00       	add    eax,0x164b9
    1b14:	c7 45 fc 00 00 00 00 	mov    DWORD PTR [ebp-0x4],0x0
    1b1b:	eb 0f                	jmp    1b2c <__gmon_start__@plt+0x1664>
    1b1d:	90                   	nop
    1b1e:	87 ff                	xchg   edi,edi
    1b20:	90                   	nop
    1b21:	87 c9                	xchg   ecx,ecx
    1b23:	90                   	nop
    1b24:	87 f6                	xchg   esi,esi
    1b26:	90                   	nop
    1b27:	90                   	nop
    1b28:	83 45 fc 01          	add    DWORD PTR [ebp-0x4],0x1
    1b2c:	83 7d fc 01          	cmp    DWORD PTR [ebp-0x4],0x1
    1b30:	7e eb                	jle    1b1d <__gmon_start__@plt+0x1655>
    1b32:	90                   	nop
    1b33:	c9                   	leave  
    1b34:	c3                   	ret    
    1b35:	55                   	push   ebp
    1b36:	89 e5                	mov    ebp,esp
    1b38:	83 ec 10             	sub    esp,0x10
    1b3b:	e8 a1 ec ff ff       	call   7e1 <__gmon_start__@plt+0x319>
    1b40:	05 88 64 01 00       	add    eax,0x16488
    1b45:	c7 45 fc 00 00 00 00 	mov    DWORD PTR [ebp-0x4],0x0
    1b4c:	eb 0b                	jmp    1b59 <__gmon_start__@plt+0x1691>
    1b4e:	87 d2                	xchg   edx,edx
    1b50:	87 d2                	xchg   edx,edx
    1b52:	90                   	nop
    1b53:	87 db                	xchg   ebx,ebx
    1b55:	83 45 fc 01          	add    DWORD PTR [ebp-0x4],0x1
    1b59:	83 7d fc 13          	cmp    DWORD PTR [ebp-0x4],0x13
    1b5d:	7e ef                	jle    1b4e <__gmon_start__@plt+0x1686>
    1b5f:	90                   	nop
    1b60:	c9                   	leave  
    1b61:	c3                   	ret    
    1b62:	55                   	push   ebp
    1b63:	89 e5                	mov    ebp,esp
    1b65:	83 ec 10             	sub    esp,0x10
    1b68:	e8 74 ec ff ff       	call   7e1 <__gmon_start__@plt+0x319>
    1b6d:	05 5b 64 01 00       	add    eax,0x1645b
    1b72:	c7 45 fc 00 00 00 00 	mov    DWORD PTR [ebp-0x4],0x0
    1b79:	eb 15                	jmp    1b90 <__gmon_start__@plt+0x16c8>
    1b7b:	87 c9                	xchg   ecx,ecx
    1b7d:	87 d2                	xchg   edx,edx
    1b7f:	87 d2                	xchg   edx,edx
    1b81:	87 c9                	xchg   ecx,ecx
    1b83:	87 d2                	xchg   edx,edx
    1b85:	87 d2                	xchg   edx,edx
    1b87:	87 c9                	xchg   ecx,ecx
    1b89:	90                   	nop
    1b8a:	87 db                	xchg   ebx,ebx
    1b8c:	83 45 fc 01          	add    DWORD PTR [ebp-0x4],0x1
    1b90:	83 7d fc 03          	cmp    DWORD PTR [ebp-0x4],0x3
    1b94:	7e e5                	jle    1b7b <__gmon_start__@plt+0x16b3>
    1b96:	90                   	nop
    1b97:	c9                   	leave  
    1b98:	c3                   	ret    
    1b99:	55                   	push   ebp
    1b9a:	89 e5                	mov    ebp,esp
    1b9c:	83 ec 10             	sub    esp,0x10
    1b9f:	e8 3d ec ff ff       	call   7e1 <__gmon_start__@plt+0x319>
    1ba4:	05 24 64 01 00       	add    eax,0x16424
    1ba9:	c7 45 fc 00 00 00 00 	mov    DWORD PTR [ebp-0x4],0x0
    1bb0:	eb 18                	jmp    1bca <__gmon_start__@plt+0x1702>
    1bb2:	87 d2                	xchg   edx,edx
    1bb4:	87 ff                	xchg   edi,edi
    1bb6:	87 ff                	xchg   edi,edi
    1bb8:	87 f6                	xchg   esi,esi
    1bba:	87 f6                	xchg   esi,esi
    1bbc:	90                   	nop
    1bbd:	87 d2                	xchg   edx,edx
    1bbf:	87 f6                	xchg   esi,esi
    1bc1:	90                   	nop
    1bc2:	87 d2                	xchg   edx,edx
    1bc4:	87 ff                	xchg   edi,edi
    1bc6:	83 45 fc 01          	add    DWORD PTR [ebp-0x4],0x1
    1bca:	83 7d fc 0a          	cmp    DWORD PTR [ebp-0x4],0xa
    1bce:	7e e2                	jle    1bb2 <__gmon_start__@plt+0x16ea>
    1bd0:	90                   	nop
    1bd1:	c9                   	leave  
    1bd2:	c3                   	ret    
    1bd3:	55                   	push   ebp
    1bd4:	89 e5                	mov    ebp,esp
    1bd6:	83 ec 10             	sub    esp,0x10
    1bd9:	e8 03 ec ff ff       	call   7e1 <__gmon_start__@plt+0x319>
    1bde:	05 ea 63 01 00       	add    eax,0x163ea
    1be3:	c7 45 fc 00 00 00 00 	mov    DWORD PTR [ebp-0x4],0x0
    1bea:	eb 10                	jmp    1bfc <__gmon_start__@plt+0x1734>
    1bec:	87 d2                	xchg   edx,edx
    1bee:	87 d2                	xchg   edx,edx
    1bf0:	90                   	nop
    1bf1:	90                   	nop
    1bf2:	87 c9                	xchg   ecx,ecx
    1bf4:	87 db                	xchg   ebx,ebx
    1bf6:	87 d2                	xchg   edx,edx
    1bf8:	83 45 fc 01          	add    DWORD PTR [ebp-0x4],0x1
    1bfc:	83 7d fc 07          	cmp    DWORD PTR [ebp-0x4],0x7
    1c00:	7e ea                	jle    1bec <__gmon_start__@plt+0x1724>
    1c02:	90                   	nop
    1c03:	c9                   	leave  
    1c04:	c3                   	ret    
    1c05:	55                   	push   ebp
    1c06:	89 e5                	mov    ebp,esp
    1c08:	83 ec 10             	sub    esp,0x10
    1c0b:	e8 d1 eb ff ff       	call   7e1 <__gmon_start__@plt+0x319>
    1c10:	05 b8 63 01 00       	add    eax,0x163b8
    1c15:	c7 45 fc 00 00 00 00 	mov    DWORD PTR [ebp-0x4],0x0
    1c1c:	eb 05                	jmp    1c23 <__gmon_start__@plt+0x175b>
    1c1e:	90                   	nop
    1c1f:	83 45 fc 01          	add    DWORD PTR [ebp-0x4],0x1
    1c23:	83 7d fc 01          	cmp    DWORD PTR [ebp-0x4],0x1
    1c27:	7e f5                	jle    1c1e <__gmon_start__@plt+0x1756>
    1c29:	90                   	nop
    1c2a:	c9                   	leave  
    1c2b:	c3                   	ret    
    1c2c:	55                   	push   ebp
    1c2d:	89 e5                	mov    ebp,esp
    1c2f:	83 ec 10             	sub    esp,0x10
    1c32:	e8 aa eb ff ff       	call   7e1 <__gmon_start__@plt+0x319>
    1c37:	05 91 63 01 00       	add    eax,0x16391
    1c3c:	c7 45 fc 00 00 00 00 	mov    DWORD PTR [ebp-0x4],0x0
    1c43:	eb 0c                	jmp    1c51 <__gmon_start__@plt+0x1789>
    1c45:	90                   	nop
    1c46:	87 d2                	xchg   edx,edx
    1c48:	87 d2                	xchg   edx,edx
    1c4a:	87 d2                	xchg   edx,edx
    1c4c:	90                   	nop
    1c4d:	83 45 fc 01          	add    DWORD PTR [ebp-0x4],0x1
    1c51:	83 7d fc 0d          	cmp    DWORD PTR [ebp-0x4],0xd
    1c55:	7e ee                	jle    1c45 <__gmon_start__@plt+0x177d>
    1c57:	90                   	nop
    1c58:	c9                   	leave  
    1c59:	c3                   	ret    
    1c5a:	55                   	push   ebp
    1c5b:	89 e5                	mov    ebp,esp
    1c5d:	83 ec 10             	sub    esp,0x10
    1c60:	e8 7c eb ff ff       	call   7e1 <__gmon_start__@plt+0x319>
    1c65:	05 63 63 01 00       	add    eax,0x16363
    1c6a:	c7 45 fc 00 00 00 00 	mov    DWORD PTR [ebp-0x4],0x0
    1c71:	eb 09                	jmp    1c7c <__gmon_start__@plt+0x17b4>
    1c73:	87 db                	xchg   ebx,ebx
    1c75:	90                   	nop
    1c76:	87 d2                	xchg   edx,edx
    1c78:	83 45 fc 01          	add    DWORD PTR [ebp-0x4],0x1
    1c7c:	83 7d fc 10          	cmp    DWORD PTR [ebp-0x4],0x10
    1c80:	7e f1                	jle    1c73 <__gmon_start__@plt+0x17ab>
    1c82:	90                   	nop
    1c83:	c9                   	leave  
    1c84:	c3                   	ret    
    1c85:	55                   	push   ebp
    1c86:	89 e5                	mov    ebp,esp
    1c88:	83 ec 10             	sub    esp,0x10
    1c8b:	e8 51 eb ff ff       	call   7e1 <__gmon_start__@plt+0x319>
    1c90:	05 38 63 01 00       	add    eax,0x16338
    1c95:	c7 45 fc 00 00 00 00 	mov    DWORD PTR [ebp-0x4],0x0
    1c9c:	eb 10                	jmp    1cae <__gmon_start__@plt+0x17e6>
    1c9e:	90                   	nop
    1c9f:	87 c9                	xchg   ecx,ecx
    1ca1:	87 d2                	xchg   edx,edx
    1ca3:	87 c9                	xchg   ecx,ecx
    1ca5:	90                   	nop
    1ca6:	87 c9                	xchg   ecx,ecx
    1ca8:	87 c9                	xchg   ecx,ecx
    1caa:	83 45 fc 01          	add    DWORD PTR [ebp-0x4],0x1
    1cae:	83 7d fc 07          	cmp    DWORD PTR [ebp-0x4],0x7
    1cb2:	7e ea                	jle    1c9e <__gmon_start__@plt+0x17d6>
    1cb4:	90                   	nop
    1cb5:	c9                   	leave  
    1cb6:	c3                   	ret    
    1cb7:	55                   	push   ebp
    1cb8:	89 e5                	mov    ebp,esp
    1cba:	83 ec 10             	sub    esp,0x10
    1cbd:	e8 1f eb ff ff       	call   7e1 <__gmon_start__@plt+0x319>
    1cc2:	05 06 63 01 00       	add    eax,0x16306
    1cc7:	c7 45 fc 00 00 00 00 	mov    DWORD PTR [ebp-0x4],0x0
    1cce:	eb 0f                	jmp    1cdf <__gmon_start__@plt+0x1817>
    1cd0:	87 f6                	xchg   esi,esi
    1cd2:	90                   	nop
    1cd3:	87 c9                	xchg   ecx,ecx
    1cd5:	87 d2                	xchg   edx,edx
    1cd7:	87 f6                	xchg   esi,esi
    1cd9:	87 d2                	xchg   edx,edx
    1cdb:	83 45 fc 01          	add    DWORD PTR [ebp-0x4],0x1
    1cdf:	83 7d fc 14          	cmp    DWORD PTR [ebp-0x4],0x14
    1ce3:	7e eb                	jle    1cd0 <__gmon_start__@plt+0x1808>
    1ce5:	90                   	nop
    1ce6:	c9                   	leave  
    1ce7:	c3                   	ret    
    1ce8:	55                   	push   ebp
    1ce9:	89 e5                	mov    ebp,esp
    1ceb:	83 ec 10             	sub    esp,0x10
    1cee:	e8 ee ea ff ff       	call   7e1 <__gmon_start__@plt+0x319>
    1cf3:	05 d5 62 01 00       	add    eax,0x162d5
    1cf8:	c7 45 fc 00 00 00 00 	mov    DWORD PTR [ebp-0x4],0x0
    1cff:	eb 15                	jmp    1d16 <__gmon_start__@plt+0x184e>
    1d01:	87 c9                	xchg   ecx,ecx
    1d03:	90                   	nop
    1d04:	87 d2                	xchg   edx,edx
    1d06:	87 ff                	xchg   edi,edi
    1d08:	87 ff                	xchg   edi,edi
    1d0a:	87 ff                	xchg   edi,edi
    1d0c:	87 db                	xchg   ebx,ebx
    1d0e:	87 d2                	xchg   edx,edx
    1d10:	87 db                	xchg   ebx,ebx
    1d12:	83 45 fc 01          	add    DWORD PTR [ebp-0x4],0x1
    1d16:	83 7d fc 02          	cmp    DWORD PTR [ebp-0x4],0x2
    1d1a:	7e e5                	jle    1d01 <__gmon_start__@plt+0x1839>
    1d1c:	90                   	nop
    1d1d:	c9                   	leave  
    1d1e:	c3                   	ret    
    1d1f:	55                   	push   ebp
    1d20:	89 e5                	mov    ebp,esp
    1d22:	83 ec 10             	sub    esp,0x10
    1d25:	e8 b7 ea ff ff       	call   7e1 <__gmon_start__@plt+0x319>
    1d2a:	05 9e 62 01 00       	add    eax,0x1629e
    1d2f:	c7 45 fc 00 00 00 00 	mov    DWORD PTR [ebp-0x4],0x0
    1d36:	eb 13                	jmp    1d4b <__gmon_start__@plt+0x1883>
    1d38:	87 f6                	xchg   esi,esi
    1d3a:	87 db                	xchg   ebx,ebx
    1d3c:	87 f6                	xchg   esi,esi
    1d3e:	87 d2                	xchg   edx,edx
    1d40:	87 c9                	xchg   ecx,ecx
    1d42:	87 c9                	xchg   ecx,ecx
    1d44:	87 db                	xchg   ebx,ebx
    1d46:	90                   	nop
    1d47:	83 45 fc 01          	add    DWORD PTR [ebp-0x4],0x1
    1d4b:	83 7d fc 0f          	cmp    DWORD PTR [ebp-0x4],0xf
    1d4f:	7e e7                	jle    1d38 <__gmon_start__@plt+0x1870>
    1d51:	90                   	nop
    1d52:	c9                   	leave  
    1d53:	c3                   	ret    
    1d54:	55                   	push   ebp
    1d55:	89 e5                	mov    ebp,esp
    1d57:	83 ec 10             	sub    esp,0x10
    1d5a:	e8 82 ea ff ff       	call   7e1 <__gmon_start__@plt+0x319>
    1d5f:	05 69 62 01 00       	add    eax,0x16269
    1d64:	c7 45 fc 00 00 00 00 	mov    DWORD PTR [ebp-0x4],0x0
    1d6b:	eb 14                	jmp    1d81 <__gmon_start__@plt+0x18b9>
    1d6d:	87 c9                	xchg   ecx,ecx
    1d6f:	87 c9                	xchg   ecx,ecx
    1d71:	87 db                	xchg   ebx,ebx
    1d73:	90                   	nop
    1d74:	87 ff                	xchg   edi,edi
    1d76:	90                   	nop
    1d77:	87 f6                	xchg   esi,esi
    1d79:	87 c9                	xchg   ecx,ecx
    1d7b:	87 d2                	xchg   edx,edx
    1d7d:	83 45 fc 01          	add    DWORD PTR [ebp-0x4],0x1
    1d81:	83 7d fc 11          	cmp    DWORD PTR [ebp-0x4],0x11
    1d85:	7e e6                	jle    1d6d <__gmon_start__@plt+0x18a5>
    1d87:	90                   	nop
    1d88:	c9                   	leave  
    1d89:	c3                   	ret    
    1d8a:	55                   	push   ebp
    1d8b:	89 e5                	mov    ebp,esp
    1d8d:	83 ec 10             	sub    esp,0x10
    1d90:	e8 4c ea ff ff       	call   7e1 <__gmon_start__@plt+0x319>
    1d95:	05 33 62 01 00       	add    eax,0x16233
    1d9a:	c7 45 fc 00 00 00 00 	mov    DWORD PTR [ebp-0x4],0x0
    1da1:	eb 16                	jmp    1db9 <__gmon_start__@plt+0x18f1>
    1da3:	90                   	nop
    1da4:	87 d2                	xchg   edx,edx
    1da6:	87 f6                	xchg   esi,esi
    1da8:	90                   	nop
    1da9:	87 ff                	xchg   edi,edi
    1dab:	87 d2                	xchg   edx,edx
    1dad:	87 f6                	xchg   esi,esi
    1daf:	87 f6                	xchg   esi,esi
    1db1:	87 d2                	xchg   edx,edx
    1db3:	87 d2                	xchg   edx,edx
    1db5:	83 45 fc 01          	add    DWORD PTR [ebp-0x4],0x1
    1db9:	83 7d fc 01          	cmp    DWORD PTR [ebp-0x4],0x1
    1dbd:	7e e4                	jle    1da3 <__gmon_start__@plt+0x18db>
    1dbf:	90                   	nop
    1dc0:	c9                   	leave  
    1dc1:	c3                   	ret    
    1dc2:	55                   	push   ebp
    1dc3:	89 e5                	mov    ebp,esp
    1dc5:	83 ec 10             	sub    esp,0x10
    1dc8:	e8 14 ea ff ff       	call   7e1 <__gmon_start__@plt+0x319>
    1dcd:	05 fb 61 01 00       	add    eax,0x161fb
    1dd2:	c7 45 fc 00 00 00 00 	mov    DWORD PTR [ebp-0x4],0x0
    1dd9:	eb 06                	jmp    1de1 <__gmon_start__@plt+0x1919>
    1ddb:	87 db                	xchg   ebx,ebx
    1ddd:	83 45 fc 01          	add    DWORD PTR [ebp-0x4],0x1
    1de1:	83 7d fc 0d          	cmp    DWORD PTR [ebp-0x4],0xd
    1de5:	7e f4                	jle    1ddb <__gmon_start__@plt+0x1913>
    1de7:	90                   	nop
    1de8:	c9                   	leave  
    1de9:	c3                   	ret    
    1dea:	55                   	push   ebp
    1deb:	89 e5                	mov    ebp,esp
    1ded:	83 ec 10             	sub    esp,0x10
    1df0:	e8 ec e9 ff ff       	call   7e1 <__gmon_start__@plt+0x319>
    1df5:	05 d3 61 01 00       	add    eax,0x161d3
    1dfa:	c7 45 fc 00 00 00 00 	mov    DWORD PTR [ebp-0x4],0x0
    1e01:	eb 0e                	jmp    1e11 <__gmon_start__@plt+0x1949>
    1e03:	87 ff                	xchg   edi,edi
    1e05:	87 ff                	xchg   edi,edi
    1e07:	87 db                	xchg   ebx,ebx
    1e09:	87 d2                	xchg   edx,edx
    1e0b:	87 ff                	xchg   edi,edi
    1e0d:	83 45 fc 01          	add    DWORD PTR [ebp-0x4],0x1
    1e11:	83 7d fc 0f          	cmp    DWORD PTR [ebp-0x4],0xf
    1e15:	7e ec                	jle    1e03 <__gmon_start__@plt+0x193b>
    1e17:	90                   	nop
    1e18:	c9                   	leave  
    1e19:	c3                   	ret    
    1e1a:	55                   	push   ebp
    1e1b:	89 e5                	mov    ebp,esp
    1e1d:	83 ec 10             	sub    esp,0x10
    1e20:	e8 bc e9 ff ff       	call   7e1 <__gmon_start__@plt+0x319>
    1e25:	05 a3 61 01 00       	add    eax,0x161a3
    1e2a:	c7 45 fc 00 00 00 00 	mov    DWORD PTR [ebp-0x4],0x0
    1e31:	eb 06                	jmp    1e39 <__gmon_start__@plt+0x1971>
    1e33:	90                   	nop
    1e34:	90                   	nop
    1e35:	83 45 fc 01          	add    DWORD PTR [ebp-0x4],0x1
    1e39:	83 7d fc 0f          	cmp    DWORD PTR [ebp-0x4],0xf
    1e3d:	7e f4                	jle    1e33 <__gmon_start__@plt+0x196b>
    1e3f:	90                   	nop
    1e40:	c9                   	leave  
    1e41:	c3                   	ret    
    1e42:	55                   	push   ebp
    1e43:	89 e5                	mov    ebp,esp
    1e45:	83 ec 10             	sub    esp,0x10
    1e48:	e8 94 e9 ff ff       	call   7e1 <__gmon_start__@plt+0x319>
    1e4d:	05 7b 61 01 00       	add    eax,0x1617b
    1e52:	c7 45 fc 00 00 00 00 	mov    DWORD PTR [ebp-0x4],0x0
    1e59:	eb 12                	jmp    1e6d <__gmon_start__@plt+0x19a5>
    1e5b:	90                   	nop
    1e5c:	90                   	nop
    1e5d:	87 db                	xchg   ebx,ebx
    1e5f:	87 f6                	xchg   esi,esi
    1e61:	87 c9                	xchg   ecx,ecx
    1e63:	87 d2                	xchg   edx,edx
    1e65:	87 f6                	xchg   esi,esi
    1e67:	90                   	nop
    1e68:	90                   	nop
    1e69:	83 45 fc 01          	add    DWORD PTR [ebp-0x4],0x1
    1e6d:	83 7d fc 11          	cmp    DWORD PTR [ebp-0x4],0x11
    1e71:	7e e8                	jle    1e5b <__gmon_start__@plt+0x1993>
    1e73:	90                   	nop
    1e74:	c9                   	leave  
    1e75:	c3                   	ret    
    1e76:	55                   	push   ebp
    1e77:	89 e5                	mov    ebp,esp
    1e79:	83 ec 10             	sub    esp,0x10
    1e7c:	e8 60 e9 ff ff       	call   7e1 <__gmon_start__@plt+0x319>
    1e81:	05 47 61 01 00       	add    eax,0x16147
    1e86:	c7 45 fc 00 00 00 00 	mov    DWORD PTR [ebp-0x4],0x0
    1e8d:	eb 0f                	jmp    1e9e <__gmon_start__@plt+0x19d6>
    1e8f:	87 c9                	xchg   ecx,ecx
    1e91:	87 d2                	xchg   edx,edx
    1e93:	87 db                	xchg   ebx,ebx
    1e95:	87 d2                	xchg   edx,edx
    1e97:	90                   	nop
    1e98:	90                   	nop
    1e99:	90                   	nop
    1e9a:	83 45 fc 01          	add    DWORD PTR [ebp-0x4],0x1
    1e9e:	83 7d fc 02          	cmp    DWORD PTR [ebp-0x4],0x2
    1ea2:	7e eb                	jle    1e8f <__gmon_start__@plt+0x19c7>
    1ea4:	90                   	nop
    1ea5:	c9                   	leave  
    1ea6:	c3                   	ret    
    1ea7:	55                   	push   ebp
    1ea8:	89 e5                	mov    ebp,esp
    1eaa:	83 ec 10             	sub    esp,0x10
    1ead:	e8 2f e9 ff ff       	call   7e1 <__gmon_start__@plt+0x319>
    1eb2:	05 16 61 01 00       	add    eax,0x16116
    1eb7:	c7 45 fc 00 00 00 00 	mov    DWORD PTR [ebp-0x4],0x0
    1ebe:	eb 0a                	jmp    1eca <__gmon_start__@plt+0x1a02>
    1ec0:	87 d2                	xchg   edx,edx
    1ec2:	87 c9                	xchg   ecx,ecx
    1ec4:	87 ff                	xchg   edi,edi
    1ec6:	83 45 fc 01          	add    DWORD PTR [ebp-0x4],0x1
    1eca:	83 7d fc 03          	cmp    DWORD PTR [ebp-0x4],0x3
    1ece:	7e f0                	jle    1ec0 <__gmon_start__@plt+0x19f8>
    1ed0:	90                   	nop
    1ed1:	c9                   	leave  
    1ed2:	c3                   	ret    
    1ed3:	55                   	push   ebp
    1ed4:	89 e5                	mov    ebp,esp
    1ed6:	83 ec 10             	sub    esp,0x10
    1ed9:	e8 03 e9 ff ff       	call   7e1 <__gmon_start__@plt+0x319>
    1ede:	05 ea 60 01 00       	add    eax,0x160ea
    1ee3:	c7 45 fc 00 00 00 00 	mov    DWORD PTR [ebp-0x4],0x0
    1eea:	eb 0d                	jmp    1ef9 <__gmon_start__@plt+0x1a31>
    1eec:	87 c9                	xchg   ecx,ecx
    1eee:	87 d2                	xchg   edx,edx
    1ef0:	87 d2                	xchg   edx,edx
    1ef2:	90                   	nop
    1ef3:	87 c9                	xchg   ecx,ecx
    1ef5:	83 45 fc 01          	add    DWORD PTR [ebp-0x4],0x1
    1ef9:	83 7d fc 10          	cmp    DWORD PTR [ebp-0x4],0x10
    1efd:	7e ed                	jle    1eec <__gmon_start__@plt+0x1a24>
    1eff:	90                   	nop
    1f00:	c9                   	leave  
    1f01:	c3                   	ret    
    1f02:	55                   	push   ebp
    1f03:	89 e5                	mov    ebp,esp
    1f05:	83 ec 10             	sub    esp,0x10
    1f08:	e8 d4 e8 ff ff       	call   7e1 <__gmon_start__@plt+0x319>
    1f0d:	05 bb 60 01 00       	add    eax,0x160bb
    1f12:	c7 45 fc 00 00 00 00 	mov    DWORD PTR [ebp-0x4],0x0
    1f19:	eb 07                	jmp    1f22 <__gmon_start__@plt+0x1a5a>
    1f1b:	87 d2                	xchg   edx,edx
    1f1d:	90                   	nop
    1f1e:	83 45 fc 01          	add    DWORD PTR [ebp-0x4],0x1
    1f22:	83 7d fc 0f          	cmp    DWORD PTR [ebp-0x4],0xf
    1f26:	7e f3                	jle    1f1b <__gmon_start__@plt+0x1a53>
    1f28:	90                   	nop
    1f29:	c9                   	leave  
    1f2a:	c3                   	ret    
    1f2b:	55                   	push   ebp
    1f2c:	89 e5                	mov    ebp,esp
    1f2e:	83 ec 10             	sub    esp,0x10
    1f31:	e8 ab e8 ff ff       	call   7e1 <__gmon_start__@plt+0x319>
    1f36:	05 92 60 01 00       	add    eax,0x16092
    1f3b:	c7 45 fc 00 00 00 00 	mov    DWORD PTR [ebp-0x4],0x0
    1f42:	eb 13                	jmp    1f57 <__gmon_start__@plt+0x1a8f>
    1f44:	87 c9                	xchg   ecx,ecx
    1f46:	87 ff                	xchg   edi,edi
    1f48:	87 ff                	xchg   edi,edi
    1f4a:	87 c9                	xchg   ecx,ecx
    1f4c:	87 ff                	xchg   edi,edi
    1f4e:	87 f6                	xchg   esi,esi
    1f50:	87 c9                	xchg   ecx,ecx
    1f52:	90                   	nop
    1f53:	83 45 fc 01          	add    DWORD PTR [ebp-0x4],0x1
    1f57:	83 7d fc 0d          	cmp    DWORD PTR [ebp-0x4],0xd
    1f5b:	7e e7                	jle    1f44 <__gmon_start__@plt+0x1a7c>
    1f5d:	90                   	nop
    1f5e:	c9                   	leave  
    1f5f:	c3                   	ret    
    1f60:	55                   	push   ebp
    1f61:	89 e5                	mov    ebp,esp
    1f63:	83 ec 10             	sub    esp,0x10
    1f66:	e8 76 e8 ff ff       	call   7e1 <__gmon_start__@plt+0x319>
    1f6b:	05 5d 60 01 00       	add    eax,0x1605d
    1f70:	c7 45 fc 00 00 00 00 	mov    DWORD PTR [ebp-0x4],0x0
    1f77:	eb 14                	jmp    1f8d <__gmon_start__@plt+0x1ac5>
    1f79:	87 f6                	xchg   esi,esi
    1f7b:	87 ff                	xchg   edi,edi
    1f7d:	87 d2                	xchg   edx,edx
    1f7f:	87 d2                	xchg   edx,edx
    1f81:	87 f6                	xchg   esi,esi
    1f83:	87 db                	xchg   ebx,ebx
    1f85:	87 db                	xchg   ebx,ebx
    1f87:	90                   	nop
    1f88:	90                   	nop
    1f89:	83 45 fc 01          	add    DWORD PTR [ebp-0x4],0x1
    1f8d:	83 7d fc 0f          	cmp    DWORD PTR [ebp-0x4],0xf
    1f91:	7e e6                	jle    1f79 <__gmon_start__@plt+0x1ab1>
    1f93:	90                   	nop
    1f94:	c9                   	leave  
    1f95:	c3                   	ret    
    1f96:	55                   	push   ebp
    1f97:	89 e5                	mov    ebp,esp
    1f99:	83 ec 10             	sub    esp,0x10
    1f9c:	e8 40 e8 ff ff       	call   7e1 <__gmon_start__@plt+0x319>
    1fa1:	05 27 60 01 00       	add    eax,0x16027
    1fa6:	c7 45 fc 00 00 00 00 	mov    DWORD PTR [ebp-0x4],0x0
    1fad:	eb 05                	jmp    1fb4 <__gmon_start__@plt+0x1aec>
    1faf:	90                   	nop
    1fb0:	83 45 fc 01          	add    DWORD PTR [ebp-0x4],0x1
    1fb4:	83 7d fc 0a          	cmp    DWORD PTR [ebp-0x4],0xa
    1fb8:	7e f5                	jle    1faf <__gmon_start__@plt+0x1ae7>
    1fba:	90                   	nop
    1fbb:	c9                   	leave  
    1fbc:	c3                   	ret    
    1fbd:	55                   	push   ebp
    1fbe:	89 e5                	mov    ebp,esp
    1fc0:	83 ec 10             	sub    esp,0x10
    1fc3:	e8 19 e8 ff ff       	call   7e1 <__gmon_start__@plt+0x319>
    1fc8:	05 00 60 01 00       	add    eax,0x16000
    1fcd:	c7 45 fc 00 00 00 00 	mov    DWORD PTR [ebp-0x4],0x0
    1fd4:	eb 08                	jmp    1fde <__gmon_start__@plt+0x1b16>
    1fd6:	87 d2                	xchg   edx,edx
    1fd8:	87 d2                	xchg   edx,edx
    1fda:	83 45 fc 01          	add    DWORD PTR [ebp-0x4],0x1
    1fde:	83 7d fc 07          	cmp    DWORD PTR [ebp-0x4],0x7
    1fe2:	7e f2                	jle    1fd6 <__gmon_start__@plt+0x1b0e>
    1fe4:	90                   	nop
    1fe5:	c9                   	leave  
    1fe6:	c3                   	ret    
    1fe7:	55                   	push   ebp
    1fe8:	89 e5                	mov    ebp,esp
    1fea:	83 ec 10             	sub    esp,0x10
    1fed:	e8 ef e7 ff ff       	call   7e1 <__gmon_start__@plt+0x319>
    1ff2:	05 d6 5f 01 00       	add    eax,0x15fd6
    1ff7:	c7 45 fc 00 00 00 00 	mov    DWORD PTR [ebp-0x4],0x0
    1ffe:	eb 18                	jmp    2018 <__gmon_start__@plt+0x1b50>
    2000:	90                   	nop
    2001:	87 db                	xchg   ebx,ebx
    2003:	90                   	nop
    2004:	87 ff                	xchg   edi,edi
    2006:	87 f6                	xchg   esi,esi
    2008:	87 db                	xchg   ebx,ebx
    200a:	87 f6                	xchg   esi,esi
    200c:	87 d2                	xchg   edx,edx
    200e:	87 ff                	xchg   edi,edi
    2010:	87 c9                	xchg   ecx,ecx
    2012:	87 db                	xchg   ebx,ebx
    2014:	83 45 fc 01          	add    DWORD PTR [ebp-0x4],0x1
    2018:	83 7d fc 0e          	cmp    DWORD PTR [ebp-0x4],0xe
    201c:	7e e2                	jle    2000 <__gmon_start__@plt+0x1b38>
    201e:	90                   	nop
    201f:	c9                   	leave  
    2020:	c3                   	ret    
    2021:	55                   	push   ebp
    2022:	89 e5                	mov    ebp,esp
    2024:	83 ec 10             	sub    esp,0x10
    2027:	e8 b5 e7 ff ff       	call   7e1 <__gmon_start__@plt+0x319>
    202c:	05 9c 5f 01 00       	add    eax,0x15f9c
    2031:	c7 45 fc 00 00 00 00 	mov    DWORD PTR [ebp-0x4],0x0
    2038:	eb 0c                	jmp    2046 <__gmon_start__@plt+0x1b7e>
    203a:	87 ff                	xchg   edi,edi
    203c:	87 d2                	xchg   edx,edx
    203e:	87 db                	xchg   ebx,ebx
    2040:	87 d2                	xchg   edx,edx
    2042:	83 45 fc 01          	add    DWORD PTR [ebp-0x4],0x1
    2046:	83 7d fc 0b          	cmp    DWORD PTR [ebp-0x4],0xb
    204a:	7e ee                	jle    203a <__gmon_start__@plt+0x1b72>
    204c:	90                   	nop
    204d:	c9                   	leave  
    204e:	c3                   	ret    
    204f:	55                   	push   ebp
    2050:	89 e5                	mov    ebp,esp
    2052:	83 ec 10             	sub    esp,0x10
    2055:	e8 87 e7 ff ff       	call   7e1 <__gmon_start__@plt+0x319>
    205a:	05 6e 5f 01 00       	add    eax,0x15f6e
    205f:	c7 45 fc 00 00 00 00 	mov    DWORD PTR [ebp-0x4],0x0
    2066:	eb 16                	jmp    207e <__gmon_start__@plt+0x1bb6>
    2068:	87 d2                	xchg   edx,edx
    206a:	87 db                	xchg   ebx,ebx
    206c:	87 ff                	xchg   edi,edi
    206e:	87 db                	xchg   ebx,ebx
    2070:	90                   	nop
    2071:	90                   	nop
    2072:	87 db                	xchg   ebx,ebx
    2074:	87 ff                	xchg   edi,edi
    2076:	87 f6                	xchg   esi,esi
    2078:	87 db                	xchg   ebx,ebx
    207a:	83 45 fc 01          	add    DWORD PTR [ebp-0x4],0x1
    207e:	83 7d fc 0c          	cmp    DWORD PTR [ebp-0x4],0xc
    2082:	7e e4                	jle    2068 <__gmon_start__@plt+0x1ba0>
    2084:	90                   	nop
    2085:	c9                   	leave  
    2086:	c3                   	ret    
    2087:	55                   	push   ebp
    2088:	89 e5                	mov    ebp,esp
    208a:	83 ec 10             	sub    esp,0x10
    208d:	e8 4f e7 ff ff       	call   7e1 <__gmon_start__@plt+0x319>
    2092:	05 36 5f 01 00       	add    eax,0x15f36
    2097:	c7 45 fc 00 00 00 00 	mov    DWORD PTR [ebp-0x4],0x0
    209e:	eb 0e                	jmp    20ae <__gmon_start__@plt+0x1be6>
    20a0:	87 db                	xchg   ebx,ebx
    20a2:	87 ff                	xchg   edi,edi
    20a4:	87 db                	xchg   ebx,ebx
    20a6:	87 f6                	xchg   esi,esi
    20a8:	87 db                	xchg   ebx,ebx
    20aa:	83 45 fc 01          	add    DWORD PTR [ebp-0x4],0x1
    20ae:	83 7d fc 04          	cmp    DWORD PTR [ebp-0x4],0x4
    20b2:	7e ec                	jle    20a0 <__gmon_start__@plt+0x1bd8>
    20b4:	90                   	nop
    20b5:	c9                   	leave  
    20b6:	c3                   	ret    
    20b7:	55                   	push   ebp
    20b8:	89 e5                	mov    ebp,esp
    20ba:	83 ec 10             	sub    esp,0x10
    20bd:	e8 1f e7 ff ff       	call   7e1 <__gmon_start__@plt+0x319>
    20c2:	05 06 5f 01 00       	add    eax,0x15f06
    20c7:	c7 45 fc 00 00 00 00 	mov    DWORD PTR [ebp-0x4],0x0
    20ce:	eb 0a                	jmp    20da <__gmon_start__@plt+0x1c12>
    20d0:	87 f6                	xchg   esi,esi
    20d2:	87 ff                	xchg   edi,edi
    20d4:	87 d2                	xchg   edx,edx
    20d6:	83 45 fc 01          	add    DWORD PTR [ebp-0x4],0x1
    20da:	83 7d fc 02          	cmp    DWORD PTR [ebp-0x4],0x2
    20de:	7e f0                	jle    20d0 <__gmon_start__@plt+0x1c08>
    20e0:	90                   	nop
    20e1:	c9                   	leave  
    20e2:	c3                   	ret    
    20e3:	55                   	push   ebp
    20e4:	89 e5                	mov    ebp,esp
    20e6:	83 ec 10             	sub    esp,0x10
    20e9:	e8 f3 e6 ff ff       	call   7e1 <__gmon_start__@plt+0x319>
    20ee:	05 da 5e 01 00       	add    eax,0x15eda
    20f3:	c7 45 fc 00 00 00 00 	mov    DWORD PTR [ebp-0x4],0x0
    20fa:	eb 11                	jmp    210d <__gmon_start__@plt+0x1c45>
    20fc:	87 db                	xchg   ebx,ebx
    20fe:	87 d2                	xchg   edx,edx
    2100:	87 d2                	xchg   edx,edx
    2102:	87 ff                	xchg   edi,edi
    2104:	87 ff                	xchg   edi,edi
    2106:	87 ff                	xchg   edi,edi
    2108:	90                   	nop
    2109:	83 45 fc 01          	add    DWORD PTR [ebp-0x4],0x1
    210d:	83 7d fc 03          	cmp    DWORD PTR [ebp-0x4],0x3
    2111:	7e e9                	jle    20fc <__gmon_start__@plt+0x1c34>
    2113:	90                   	nop
    2114:	c9                   	leave  
    2115:	c3                   	ret    
    2116:	55                   	push   ebp
    2117:	89 e5                	mov    ebp,esp
    2119:	83 ec 10             	sub    esp,0x10
    211c:	e8 c0 e6 ff ff       	call   7e1 <__gmon_start__@plt+0x319>
    2121:	05 a7 5e 01 00       	add    eax,0x15ea7
    2126:	c7 45 fc 00 00 00 00 	mov    DWORD PTR [ebp-0x4],0x0
    212d:	eb 14                	jmp    2143 <__gmon_start__@plt+0x1c7b>
    212f:	87 ff                	xchg   edi,edi
    2131:	87 f6                	xchg   esi,esi
    2133:	87 d2                	xchg   edx,edx
    2135:	90                   	nop
    2136:	90                   	nop
    2137:	90                   	nop
    2138:	87 db                	xchg   ebx,ebx
    213a:	90                   	nop
    213b:	87 ff                	xchg   edi,edi
    213d:	87 c9                	xchg   ecx,ecx
    213f:	83 45 fc 01          	add    DWORD PTR [ebp-0x4],0x1
    2143:	83 7d fc 06          	cmp    DWORD PTR [ebp-0x4],0x6
    2147:	7e e6                	jle    212f <__gmon_start__@plt+0x1c67>
    2149:	90                   	nop
    214a:	c9                   	leave  
    214b:	c3                   	ret    
    214c:	55                   	push   ebp
    214d:	89 e5                	mov    ebp,esp
    214f:	83 ec 10             	sub    esp,0x10
    2152:	e8 8a e6 ff ff       	call   7e1 <__gmon_start__@plt+0x319>
    2157:	05 71 5e 01 00       	add    eax,0x15e71
    215c:	c7 45 fc 00 00 00 00 	mov    DWORD PTR [ebp-0x4],0x0
    2163:	eb 12                	jmp    2177 <__gmon_start__@plt+0x1caf>
    2165:	87 d2                	xchg   edx,edx
    2167:	87 db                	xchg   ebx,ebx
    2169:	87 f6                	xchg   esi,esi
    216b:	87 db                	xchg   ebx,ebx
    216d:	87 db                	xchg   ebx,ebx
    216f:	87 db                	xchg   ebx,ebx
    2171:	87 d2                	xchg   edx,edx
    2173:	83 45 fc 01          	add    DWORD PTR [ebp-0x4],0x1
    2177:	83 7d fc 0e          	cmp    DWORD PTR [ebp-0x4],0xe
    217b:	7e e8                	jle    2165 <__gmon_start__@plt+0x1c9d>
    217d:	90                   	nop
    217e:	c9                   	leave  
    217f:	c3                   	ret    
    2180:	55                   	push   ebp
    2181:	89 e5                	mov    ebp,esp
    2183:	83 ec 10             	sub    esp,0x10
    2186:	e8 56 e6 ff ff       	call   7e1 <__gmon_start__@plt+0x319>
    218b:	05 3d 5e 01 00       	add    eax,0x15e3d
    2190:	c7 45 fc 00 00 00 00 	mov    DWORD PTR [ebp-0x4],0x0
    2197:	eb 14                	jmp    21ad <__gmon_start__@plt+0x1ce5>
    2199:	90                   	nop
    219a:	87 c9                	xchg   ecx,ecx
    219c:	87 f6                	xchg   esi,esi
    219e:	87 ff                	xchg   edi,edi
    21a0:	90                   	nop
    21a1:	87 d2                	xchg   edx,edx
    21a3:	87 c9                	xchg   ecx,ecx
    21a5:	87 d2                	xchg   edx,edx
    21a7:	87 ff                	xchg   edi,edi
    21a9:	83 45 fc 01          	add    DWORD PTR [ebp-0x4],0x1
    21ad:	83 7d fc 0b          	cmp    DWORD PTR [ebp-0x4],0xb
    21b1:	7e e6                	jle    2199 <__gmon_start__@plt+0x1cd1>
    21b3:	90                   	nop
    21b4:	c9                   	leave  
    21b5:	c3                   	ret    
    21b6:	55                   	push   ebp
    21b7:	89 e5                	mov    ebp,esp
    21b9:	83 ec 10             	sub    esp,0x10
    21bc:	e8 20 e6 ff ff       	call   7e1 <__gmon_start__@plt+0x319>
    21c1:	05 07 5e 01 00       	add    eax,0x15e07
    21c6:	c7 45 fc 00 00 00 00 	mov    DWORD PTR [ebp-0x4],0x0
    21cd:	eb 05                	jmp    21d4 <__gmon_start__@plt+0x1d0c>
    21cf:	90                   	nop
    21d0:	83 45 fc 01          	add    DWORD PTR [ebp-0x4],0x1
    21d4:	83 7d fc 03          	cmp    DWORD PTR [ebp-0x4],0x3
    21d8:	7e f5                	jle    21cf <__gmon_start__@plt+0x1d07>
    21da:	90                   	nop
    21db:	c9                   	leave  
    21dc:	c3                   	ret    
    21dd:	55                   	push   ebp
    21de:	89 e5                	mov    ebp,esp
    21e0:	83 ec 10             	sub    esp,0x10
    21e3:	e8 f9 e5 ff ff       	call   7e1 <__gmon_start__@plt+0x319>
    21e8:	05 e0 5d 01 00       	add    eax,0x15de0
    21ed:	c7 45 fc 00 00 00 00 	mov    DWORD PTR [ebp-0x4],0x0
    21f4:	eb 09                	jmp    21ff <__gmon_start__@plt+0x1d37>
    21f6:	87 ff                	xchg   edi,edi
    21f8:	87 d2                	xchg   edx,edx
    21fa:	90                   	nop
    21fb:	83 45 fc 01          	add    DWORD PTR [ebp-0x4],0x1
    21ff:	83 7d fc 0c          	cmp    DWORD PTR [ebp-0x4],0xc
    2203:	7e f1                	jle    21f6 <__gmon_start__@plt+0x1d2e>
    2205:	90                   	nop
    2206:	c9                   	leave  
    2207:	c3                   	ret    
    2208:	55                   	push   ebp
    2209:	89 e5                	mov    ebp,esp
    220b:	83 ec 10             	sub    esp,0x10
    220e:	e8 ce e5 ff ff       	call   7e1 <__gmon_start__@plt+0x319>
    2213:	05 b5 5d 01 00       	add    eax,0x15db5
    2218:	c7 45 fc 00 00 00 00 	mov    DWORD PTR [ebp-0x4],0x0
    221f:	eb 10                	jmp    2231 <__gmon_start__@plt+0x1d69>
    2221:	90                   	nop
    2222:	90                   	nop
    2223:	87 c9                	xchg   ecx,ecx
    2225:	90                   	nop
    2226:	87 db                	xchg   ebx,ebx
    2228:	87 db                	xchg   ebx,ebx
    222a:	87 db                	xchg   ebx,ebx
    222c:	90                   	nop
    222d:	83 45 fc 01          	add    DWORD PTR [ebp-0x4],0x1
    2231:	83 7d fc 0d          	cmp    DWORD PTR [ebp-0x4],0xd
    2235:	7e ea                	jle    2221 <__gmon_start__@plt+0x1d59>
    2237:	90                   	nop
    2238:	c9                   	leave  
    2239:	c3                   	ret    
    223a:	55                   	push   ebp
    223b:	89 e5                	mov    ebp,esp
    223d:	83 ec 10             	sub    esp,0x10
    2240:	e8 9c e5 ff ff       	call   7e1 <__gmon_start__@plt+0x319>
    2245:	05 83 5d 01 00       	add    eax,0x15d83
    224a:	c7 45 fc 00 00 00 00 	mov    DWORD PTR [ebp-0x4],0x0
    2251:	eb 0b                	jmp    225e <__gmon_start__@plt+0x1d96>
    2253:	87 f6                	xchg   esi,esi
    2255:	87 d2                	xchg   edx,edx
    2257:	90                   	nop
    2258:	87 f6                	xchg   esi,esi
    225a:	83 45 fc 01          	add    DWORD PTR [ebp-0x4],0x1
    225e:	83 7d fc 0b          	cmp    DWORD PTR [ebp-0x4],0xb
    2262:	7e ef                	jle    2253 <__gmon_start__@plt+0x1d8b>
    2264:	90                   	nop
    2265:	c9                   	leave  
    2266:	c3                   	ret    
    2267:	55                   	push   ebp
    2268:	89 e5                	mov    ebp,esp
    226a:	83 ec 10             	sub    esp,0x10
    226d:	e8 6f e5 ff ff       	call   7e1 <__gmon_start__@plt+0x319>
    2272:	05 56 5d 01 00       	add    eax,0x15d56
    2277:	c7 45 fc 00 00 00 00 	mov    DWORD PTR [ebp-0x4],0x0
    227e:	eb 13                	jmp    2293 <__gmon_start__@plt+0x1dcb>
    2280:	87 db                	xchg   ebx,ebx
    2282:	87 d2                	xchg   edx,edx
    2284:	90                   	nop
    2285:	90                   	nop
    2286:	87 db                	xchg   ebx,ebx
    2288:	87 f6                	xchg   esi,esi
    228a:	87 db                	xchg   ebx,ebx
    228c:	87 db                	xchg   ebx,ebx
    228e:	90                   	nop
    228f:	83 45 fc 01          	add    DWORD PTR [ebp-0x4],0x1
    2293:	83 7d fc 03          	cmp    DWORD PTR [ebp-0x4],0x3
    2297:	7e e7                	jle    2280 <__gmon_start__@plt+0x1db8>
    2299:	90                   	nop
    229a:	c9                   	leave  
    229b:	c3                   	ret    
    229c:	55                   	push   ebp
    229d:	89 e5                	mov    ebp,esp
    229f:	83 ec 10             	sub    esp,0x10
    22a2:	e8 3a e5 ff ff       	call   7e1 <__gmon_start__@plt+0x319>
    22a7:	05 21 5d 01 00       	add    eax,0x15d21
    22ac:	c7 45 fc 00 00 00 00 	mov    DWORD PTR [ebp-0x4],0x0
    22b3:	eb 0e                	jmp    22c3 <__gmon_start__@plt+0x1dfb>
    22b5:	87 db                	xchg   ebx,ebx
    22b7:	87 ff                	xchg   edi,edi
    22b9:	87 d2                	xchg   edx,edx
    22bb:	87 ff                	xchg   edi,edi
    22bd:	87 f6                	xchg   esi,esi
    22bf:	83 45 fc 01          	add    DWORD PTR [ebp-0x4],0x1
    22c3:	83 7d fc 07          	cmp    DWORD PTR [ebp-0x4],0x7
    22c7:	7e ec                	jle    22b5 <__gmon_start__@plt+0x1ded>
    22c9:	90                   	nop
    22ca:	c9                   	leave  
    22cb:	c3                   	ret    
    22cc:	55                   	push   ebp
    22cd:	89 e5                	mov    ebp,esp
    22cf:	83 ec 10             	sub    esp,0x10
    22d2:	e8 0a e5 ff ff       	call   7e1 <__gmon_start__@plt+0x319>
    22d7:	05 f1 5c 01 00       	add    eax,0x15cf1
    22dc:	c7 45 fc 00 00 00 00 	mov    DWORD PTR [ebp-0x4],0x0
    22e3:	eb 0b                	jmp    22f0 <__gmon_start__@plt+0x1e28>
    22e5:	87 f6                	xchg   esi,esi
    22e7:	87 d2                	xchg   edx,edx
    22e9:	90                   	nop
    22ea:	87 db                	xchg   ebx,ebx
    22ec:	83 45 fc 01          	add    DWORD PTR [ebp-0x4],0x1
    22f0:	83 7d fc 0d          	cmp    DWORD PTR [ebp-0x4],0xd
    22f4:	7e ef                	jle    22e5 <__gmon_start__@plt+0x1e1d>
    22f6:	90                   	nop
    22f7:	c9                   	leave  
    22f8:	c3                   	ret    
    22f9:	55                   	push   ebp
    22fa:	89 e5                	mov    ebp,esp
    22fc:	83 ec 10             	sub    esp,0x10
    22ff:	e8 dd e4 ff ff       	call   7e1 <__gmon_start__@plt+0x319>
    2304:	05 c4 5c 01 00       	add    eax,0x15cc4
    2309:	c7 45 fc 00 00 00 00 	mov    DWORD PTR [ebp-0x4],0x0
    2310:	eb 0c                	jmp    231e <__gmon_start__@plt+0x1e56>
    2312:	87 d2                	xchg   edx,edx
    2314:	87 c9                	xchg   ecx,ecx
    2316:	87 db                	xchg   ebx,ebx
    2318:	87 ff                	xchg   edi,edi
    231a:	83 45 fc 01          	add    DWORD PTR [ebp-0x4],0x1
    231e:	83 7d fc 0f          	cmp    DWORD PTR [ebp-0x4],0xf
    2322:	7e ee                	jle    2312 <__gmon_start__@plt+0x1e4a>
    2324:	90                   	nop
    2325:	c9                   	leave  
    2326:	c3                   	ret    
    2327:	55                   	push   ebp
    2328:	89 e5                	mov    ebp,esp
    232a:	83 ec 10             	sub    esp,0x10
    232d:	e8 af e4 ff ff       	call   7e1 <__gmon_start__@plt+0x319>
    2332:	05 96 5c 01 00       	add    eax,0x15c96
    2337:	c7 45 fc 00 00 00 00 	mov    DWORD PTR [ebp-0x4],0x0
    233e:	eb 07                	jmp    2347 <__gmon_start__@plt+0x1e7f>
    2340:	87 f6                	xchg   esi,esi
    2342:	90                   	nop
    2343:	83 45 fc 01          	add    DWORD PTR [ebp-0x4],0x1
    2347:	83 7d fc 00          	cmp    DWORD PTR [ebp-0x4],0x0
    234b:	7e f3                	jle    2340 <__gmon_start__@plt+0x1e78>
    234d:	90                   	nop
    234e:	c9                   	leave  
    234f:	c3                   	ret    
    2350:	55                   	push   ebp
    2351:	89 e5                	mov    ebp,esp
    2353:	83 ec 10             	sub    esp,0x10
    2356:	e8 86 e4 ff ff       	call   7e1 <__gmon_start__@plt+0x319>
    235b:	05 6d 5c 01 00       	add    eax,0x15c6d
    2360:	c7 45 fc 00 00 00 00 	mov    DWORD PTR [ebp-0x4],0x0
    2367:	eb 12                	jmp    237b <__gmon_start__@plt+0x1eb3>
    2369:	87 db                	xchg   ebx,ebx
    236b:	87 c9                	xchg   ecx,ecx
    236d:	87 db                	xchg   ebx,ebx
    236f:	87 c9                	xchg   ecx,ecx
    2371:	87 ff                	xchg   edi,edi
    2373:	87 c9                	xchg   ecx,ecx
    2375:	90                   	nop
    2376:	90                   	nop
    2377:	83 45 fc 01          	add    DWORD PTR [ebp-0x4],0x1
    237b:	83 7d fc 04          	cmp    DWORD PTR [ebp-0x4],0x4
    237f:	7e e8                	jle    2369 <__gmon_start__@plt+0x1ea1>
    2381:	90                   	nop
    2382:	c9                   	leave  
    2383:	c3                   	ret    
    2384:	55                   	push   ebp
    2385:	89 e5                	mov    ebp,esp
    2387:	83 ec 10             	sub    esp,0x10
    238a:	e8 52 e4 ff ff       	call   7e1 <__gmon_start__@plt+0x319>
    238f:	05 39 5c 01 00       	add    eax,0x15c39
    2394:	c7 45 fc 00 00 00 00 	mov    DWORD PTR [ebp-0x4],0x0
    239b:	eb 0d                	jmp    23aa <__gmon_start__@plt+0x1ee2>
    239d:	90                   	nop
    239e:	87 c9                	xchg   ecx,ecx
    23a0:	90                   	nop
    23a1:	87 d2                	xchg   edx,edx
    23a3:	87 f6                	xchg   esi,esi
    23a5:	90                   	nop
    23a6:	83 45 fc 01          	add    DWORD PTR [ebp-0x4],0x1
    23aa:	83 7d fc 13          	cmp    DWORD PTR [ebp-0x4],0x13
    23ae:	7e ed                	jle    239d <__gmon_start__@plt+0x1ed5>
    23b0:	90                   	nop
    23b1:	c9                   	leave  
    23b2:	c3                   	ret    
    23b3:	55                   	push   ebp
    23b4:	89 e5                	mov    ebp,esp
    23b6:	83 ec 10             	sub    esp,0x10
    23b9:	e8 23 e4 ff ff       	call   7e1 <__gmon_start__@plt+0x319>
    23be:	05 0a 5c 01 00       	add    eax,0x15c0a
    23c3:	c7 45 fc 00 00 00 00 	mov    DWORD PTR [ebp-0x4],0x0
    23ca:	eb 14                	jmp    23e0 <__gmon_start__@plt+0x1f18>
    23cc:	87 db                	xchg   ebx,ebx
    23ce:	90                   	nop
    23cf:	87 f6                	xchg   esi,esi
    23d1:	87 db                	xchg   ebx,ebx
    23d3:	87 f6                	xchg   esi,esi
    23d5:	87 d2                	xchg   edx,edx
    23d7:	87 ff                	xchg   edi,edi
    23d9:	87 ff                	xchg   edi,edi
    23db:	90                   	nop
    23dc:	83 45 fc 01          	add    DWORD PTR [ebp-0x4],0x1
    23e0:	83 7d fc 01          	cmp    DWORD PTR [ebp-0x4],0x1
    23e4:	7e e6                	jle    23cc <__gmon_start__@plt+0x1f04>
    23e6:	90                   	nop
    23e7:	c9                   	leave  
    23e8:	c3                   	ret    
    23e9:	55                   	push   ebp
    23ea:	89 e5                	mov    ebp,esp
    23ec:	83 ec 10             	sub    esp,0x10
    23ef:	e8 ed e3 ff ff       	call   7e1 <__gmon_start__@plt+0x319>
    23f4:	05 d4 5b 01 00       	add    eax,0x15bd4
    23f9:	c7 45 fc 00 00 00 00 	mov    DWORD PTR [ebp-0x4],0x0
    2400:	eb 0b                	jmp    240d <__gmon_start__@plt+0x1f45>
    2402:	87 c9                	xchg   ecx,ecx
    2404:	90                   	nop
    2405:	87 db                	xchg   ebx,ebx
    2407:	87 c9                	xchg   ecx,ecx
    2409:	83 45 fc 01          	add    DWORD PTR [ebp-0x4],0x1
    240d:	83 7d fc 12          	cmp    DWORD PTR [ebp-0x4],0x12
    2411:	7e ef                	jle    2402 <__gmon_start__@plt+0x1f3a>
    2413:	90                   	nop
    2414:	c9                   	leave  
    2415:	c3                   	ret    
    2416:	55                   	push   ebp
    2417:	89 e5                	mov    ebp,esp
    2419:	83 ec 10             	sub    esp,0x10
    241c:	e8 c0 e3 ff ff       	call   7e1 <__gmon_start__@plt+0x319>
    2421:	05 a7 5b 01 00       	add    eax,0x15ba7
    2426:	c7 45 fc 00 00 00 00 	mov    DWORD PTR [ebp-0x4],0x0
    242d:	eb 14                	jmp    2443 <__gmon_start__@plt+0x1f7b>
    242f:	90                   	nop
    2430:	87 ff                	xchg   edi,edi
    2432:	87 c9                	xchg   ecx,ecx
    2434:	87 c9                	xchg   ecx,ecx
    2436:	87 d2                	xchg   edx,edx
    2438:	87 c9                	xchg   ecx,ecx
    243a:	87 f6                	xchg   esi,esi
    243c:	90                   	nop
    243d:	87 ff                	xchg   edi,edi
    243f:	83 45 fc 01          	add    DWORD PTR [ebp-0x4],0x1
    2443:	83 7d fc 0b          	cmp    DWORD PTR [ebp-0x4],0xb
    2447:	7e e6                	jle    242f <__gmon_start__@plt+0x1f67>
    2449:	90                   	nop
    244a:	c9                   	leave  
    244b:	c3                   	ret    
    244c:	55                   	push   ebp
    244d:	89 e5                	mov    ebp,esp
    244f:	83 ec 10             	sub    esp,0x10
    2452:	e8 8a e3 ff ff       	call   7e1 <__gmon_start__@plt+0x319>
    2457:	05 71 5b 01 00       	add    eax,0x15b71
    245c:	c7 45 fc 00 00 00 00 	mov    DWORD PTR [ebp-0x4],0x0
    2463:	eb 17                	jmp    247c <__gmon_start__@plt+0x1fb4>
    2465:	87 c9                	xchg   ecx,ecx
    2467:	87 d2                	xchg   edx,edx
    2469:	90                   	nop
    246a:	90                   	nop
    246b:	87 d2                	xchg   edx,edx
    246d:	87 d2                	xchg   edx,edx
    246f:	87 f6                	xchg   esi,esi
    2471:	87 f6                	xchg   esi,esi
    2473:	87 ff                	xchg   edi,edi
    2475:	90                   	nop
    2476:	87 d2                	xchg   edx,edx
    2478:	83 45 fc 01          	add    DWORD PTR [ebp-0x4],0x1
    247c:	83 7d fc 04          	cmp    DWORD PTR [ebp-0x4],0x4
    2480:	7e e3                	jle    2465 <__gmon_start__@plt+0x1f9d>
    2482:	90                   	nop
    2483:	c9                   	leave  
    2484:	c3                   	ret    
    2485:	55                   	push   ebp
    2486:	89 e5                	mov    ebp,esp
    2488:	83 ec 10             	sub    esp,0x10
    248b:	e8 51 e3 ff ff       	call   7e1 <__gmon_start__@plt+0x319>
    2490:	05 38 5b 01 00       	add    eax,0x15b38
    2495:	c7 45 fc 00 00 00 00 	mov    DWORD PTR [ebp-0x4],0x0
    249c:	eb 17                	jmp    24b5 <__gmon_start__@plt+0x1fed>
    249e:	87 ff                	xchg   edi,edi
    24a0:	87 f6                	xchg   esi,esi
    24a2:	87 db                	xchg   ebx,ebx
    24a4:	87 d2                	xchg   edx,edx
    24a6:	87 d2                	xchg   edx,edx
    24a8:	87 ff                	xchg   edi,edi
    24aa:	87 d2                	xchg   edx,edx
    24ac:	87 db                	xchg   ebx,ebx
    24ae:	87 db                	xchg   ebx,ebx
    24b0:	90                   	nop
    24b1:	83 45 fc 01          	add    DWORD PTR [ebp-0x4],0x1
    24b5:	83 7d fc 0b          	cmp    DWORD PTR [ebp-0x4],0xb
    24b9:	7e e3                	jle    249e <__gmon_start__@plt+0x1fd6>
    24bb:	90                   	nop
    24bc:	c9                   	leave  
    24bd:	c3                   	ret    
    24be:	55                   	push   ebp
    24bf:	89 e5                	mov    ebp,esp
    24c1:	83 ec 10             	sub    esp,0x10
    24c4:	e8 18 e3 ff ff       	call   7e1 <__gmon_start__@plt+0x319>
    24c9:	05 ff 5a 01 00       	add    eax,0x15aff
    24ce:	c7 45 fc 00 00 00 00 	mov    DWORD PTR [ebp-0x4],0x0
    24d5:	eb 07                	jmp    24de <__gmon_start__@plt+0x2016>
    24d7:	90                   	nop
    24d8:	87 f6                	xchg   esi,esi
    24da:	83 45 fc 01          	add    DWORD PTR [ebp-0x4],0x1
    24de:	83 7d fc 05          	cmp    DWORD PTR [ebp-0x4],0x5
    24e2:	7e f3                	jle    24d7 <__gmon_start__@plt+0x200f>
    24e4:	90                   	nop
    24e5:	c9                   	leave  
    24e6:	c3                   	ret    
    24e7:	55                   	push   ebp
    24e8:	89 e5                	mov    ebp,esp
    24ea:	83 ec 10             	sub    esp,0x10
    24ed:	e8 ef e2 ff ff       	call   7e1 <__gmon_start__@plt+0x319>
    24f2:	05 d6 5a 01 00       	add    eax,0x15ad6
    24f7:	c7 45 fc 00 00 00 00 	mov    DWORD PTR [ebp-0x4],0x0
    24fe:	eb 0b                	jmp    250b <__gmon_start__@plt+0x2043>
    2500:	87 d2                	xchg   edx,edx
    2502:	90                   	nop
    2503:	87 d2                	xchg   edx,edx
    2505:	87 d2                	xchg   edx,edx
    2507:	83 45 fc 01          	add    DWORD PTR [ebp-0x4],0x1
    250b:	83 7d fc 0e          	cmp    DWORD PTR [ebp-0x4],0xe
    250f:	7e ef                	jle    2500 <__gmon_start__@plt+0x2038>
    2511:	90                   	nop
    2512:	c9                   	leave  
    2513:	c3                   	ret    
    2514:	55                   	push   ebp
    2515:	89 e5                	mov    ebp,esp
    2517:	83 ec 10             	sub    esp,0x10
    251a:	e8 c2 e2 ff ff       	call   7e1 <__gmon_start__@plt+0x319>
    251f:	05 a9 5a 01 00       	add    eax,0x15aa9
    2524:	c7 45 fc 00 00 00 00 	mov    DWORD PTR [ebp-0x4],0x0
    252b:	eb 09                	jmp    2536 <__gmon_start__@plt+0x206e>
    252d:	87 f6                	xchg   esi,esi
    252f:	87 c9                	xchg   ecx,ecx
    2531:	90                   	nop
    2532:	83 45 fc 01          	add    DWORD PTR [ebp-0x4],0x1
    2536:	83 7d fc 01          	cmp    DWORD PTR [ebp-0x4],0x1
    253a:	7e f1                	jle    252d <__gmon_start__@plt+0x2065>
    253c:	90                   	nop
    253d:	c9                   	leave  
    253e:	c3                   	ret    
    253f:	55                   	push   ebp
    2540:	89 e5                	mov    ebp,esp
    2542:	83 ec 10             	sub    esp,0x10
    2545:	e8 97 e2 ff ff       	call   7e1 <__gmon_start__@plt+0x319>
    254a:	05 7e 5a 01 00       	add    eax,0x15a7e
    254f:	c7 45 fc 00 00 00 00 	mov    DWORD PTR [ebp-0x4],0x0
    2556:	eb 12                	jmp    256a <__gmon_start__@plt+0x20a2>
    2558:	90                   	nop
    2559:	87 f6                	xchg   esi,esi
    255b:	90                   	nop
    255c:	87 f6                	xchg   esi,esi
    255e:	87 f6                	xchg   esi,esi
    2560:	90                   	nop
    2561:	90                   	nop
    2562:	90                   	nop
    2563:	90                   	nop
    2564:	87 c9                	xchg   ecx,ecx
    2566:	83 45 fc 01          	add    DWORD PTR [ebp-0x4],0x1
    256a:	83 7d fc 02          	cmp    DWORD PTR [ebp-0x4],0x2
    256e:	7e e8                	jle    2558 <__gmon_start__@plt+0x2090>
    2570:	90                   	nop
    2571:	c9                   	leave  
    2572:	c3                   	ret    
    2573:	55                   	push   ebp
    2574:	89 e5                	mov    ebp,esp
    2576:	83 ec 10             	sub    esp,0x10
    2579:	e8 63 e2 ff ff       	call   7e1 <__gmon_start__@plt+0x319>
    257e:	05 4a 5a 01 00       	add    eax,0x15a4a
    2583:	c7 45 fc 00 00 00 00 	mov    DWORD PTR [ebp-0x4],0x0
    258a:	eb 16                	jmp    25a2 <__gmon_start__@plt+0x20da>
    258c:	87 c9                	xchg   ecx,ecx
    258e:	87 d2                	xchg   edx,edx
    2590:	90                   	nop
    2591:	87 ff                	xchg   edi,edi
    2593:	87 d2                	xchg   edx,edx
    2595:	87 ff                	xchg   edi,edi
    2597:	87 db                	xchg   ebx,ebx
    2599:	90                   	nop
    259a:	87 c9                	xchg   ecx,ecx
    259c:	90                   	nop
    259d:	90                   	nop
    259e:	83 45 fc 01          	add    DWORD PTR [ebp-0x4],0x1
    25a2:	83 7d fc 01          	cmp    DWORD PTR [ebp-0x4],0x1
    25a6:	7e e4                	jle    258c <__gmon_start__@plt+0x20c4>
    25a8:	90                   	nop
    25a9:	c9                   	leave  
    25aa:	c3                   	ret    
    25ab:	55                   	push   ebp
    25ac:	89 e5                	mov    ebp,esp
    25ae:	83 ec 10             	sub    esp,0x10
    25b1:	e8 2b e2 ff ff       	call   7e1 <__gmon_start__@plt+0x319>
    25b6:	05 12 5a 01 00       	add    eax,0x15a12
    25bb:	c7 45 fc 00 00 00 00 	mov    DWORD PTR [ebp-0x4],0x0
    25c2:	eb 07                	jmp    25cb <__gmon_start__@plt+0x2103>
    25c4:	87 d2                	xchg   edx,edx
    25c6:	90                   	nop
    25c7:	83 45 fc 01          	add    DWORD PTR [ebp-0x4],0x1
    25cb:	83 7d fc 13          	cmp    DWORD PTR [ebp-0x4],0x13
    25cf:	7e f3                	jle    25c4 <__gmon_start__@plt+0x20fc>
    25d1:	90                   	nop
    25d2:	c9                   	leave  
    25d3:	c3                   	ret    
    25d4:	55                   	push   ebp
    25d5:	89 e5                	mov    ebp,esp
    25d7:	83 ec 10             	sub    esp,0x10
    25da:	e8 02 e2 ff ff       	call   7e1 <__gmon_start__@plt+0x319>
    25df:	05 e9 59 01 00       	add    eax,0x159e9
    25e4:	c7 45 fc 00 00 00 00 	mov    DWORD PTR [ebp-0x4],0x0
    25eb:	eb 0e                	jmp    25fb <__gmon_start__@plt+0x2133>
    25ed:	87 c9                	xchg   ecx,ecx
    25ef:	87 f6                	xchg   esi,esi
    25f1:	90                   	nop
    25f2:	87 f6                	xchg   esi,esi
    25f4:	90                   	nop
    25f5:	87 d2                	xchg   edx,edx
    25f7:	83 45 fc 01          	add    DWORD PTR [ebp-0x4],0x1
    25fb:	83 7d fc 03          	cmp    DWORD PTR [ebp-0x4],0x3
    25ff:	7e ec                	jle    25ed <__gmon_start__@plt+0x2125>
    2601:	90                   	nop
    2602:	c9                   	leave  
    2603:	c3                   	ret    
    2604:	55                   	push   ebp
    2605:	89 e5                	mov    ebp,esp
    2607:	83 ec 10             	sub    esp,0x10
    260a:	e8 d2 e1 ff ff       	call   7e1 <__gmon_start__@plt+0x319>
    260f:	05 b9 59 01 00       	add    eax,0x159b9
    2614:	c7 45 fc 00 00 00 00 	mov    DWORD PTR [ebp-0x4],0x0
    261b:	eb 0a                	jmp    2627 <__gmon_start__@plt+0x215f>
    261d:	87 ff                	xchg   edi,edi
    261f:	87 db                	xchg   ebx,ebx
    2621:	87 ff                	xchg   edi,edi
    2623:	83 45 fc 01          	add    DWORD PTR [ebp-0x4],0x1
    2627:	83 7d fc 01          	cmp    DWORD PTR [ebp-0x4],0x1
    262b:	7e f0                	jle    261d <__gmon_start__@plt+0x2155>
    262d:	90                   	nop
    262e:	c9                   	leave  
    262f:	c3                   	ret    
    2630:	55                   	push   ebp
    2631:	89 e5                	mov    ebp,esp
    2633:	83 ec 10             	sub    esp,0x10
    2636:	e8 a6 e1 ff ff       	call   7e1 <__gmon_start__@plt+0x319>
    263b:	05 8d 59 01 00       	add    eax,0x1598d
    2640:	c7 45 fc 00 00 00 00 	mov    DWORD PTR [ebp-0x4],0x0
    2647:	eb 16                	jmp    265f <__gmon_start__@plt+0x2197>
    2649:	87 d2                	xchg   edx,edx
    264b:	87 ff                	xchg   edi,edi
    264d:	90                   	nop
    264e:	87 d2                	xchg   edx,edx
    2650:	87 ff                	xchg   edi,edi
    2652:	87 c9                	xchg   ecx,ecx
    2654:	87 ff                	xchg   edi,edi
    2656:	87 c9                	xchg   ecx,ecx
    2658:	87 c9                	xchg   ecx,ecx
    265a:	90                   	nop
    265b:	83 45 fc 01          	add    DWORD PTR [ebp-0x4],0x1
    265f:	83 7d fc 0c          	cmp    DWORD PTR [ebp-0x4],0xc
    2663:	7e e4                	jle    2649 <__gmon_start__@plt+0x2181>
    2665:	90                   	nop
    2666:	c9                   	leave  
    2667:	c3                   	ret    
    2668:	55                   	push   ebp
    2669:	89 e5                	mov    ebp,esp
    266b:	83 ec 10             	sub    esp,0x10
    266e:	e8 6e e1 ff ff       	call   7e1 <__gmon_start__@plt+0x319>
    2673:	05 55 59 01 00       	add    eax,0x15955
    2678:	c7 45 fc 00 00 00 00 	mov    DWORD PTR [ebp-0x4],0x0
    267f:	eb 17                	jmp    2698 <__gmon_start__@plt+0x21d0>
    2681:	87 d2                	xchg   edx,edx
    2683:	90                   	nop
    2684:	87 c9                	xchg   ecx,ecx
    2686:	87 d2                	xchg   edx,edx
    2688:	87 db                	xchg   ebx,ebx
    268a:	87 c9                	xchg   ecx,ecx
    268c:	87 d2                	xchg   edx,edx
    268e:	90                   	nop
    268f:	90                   	nop
    2690:	87 ff                	xchg   edi,edi
    2692:	87 ff                	xchg   edi,edi
    2694:	83 45 fc 01          	add    DWORD PTR [ebp-0x4],0x1
    2698:	83 7d fc 03          	cmp    DWORD PTR [ebp-0x4],0x3
    269c:	7e e3                	jle    2681 <__gmon_start__@plt+0x21b9>
    269e:	90                   	nop
    269f:	c9                   	leave  
    26a0:	c3                   	ret    
    26a1:	55                   	push   ebp
    26a2:	89 e5                	mov    ebp,esp
    26a4:	83 ec 10             	sub    esp,0x10
    26a7:	e8 35 e1 ff ff       	call   7e1 <__gmon_start__@plt+0x319>
    26ac:	05 1c 59 01 00       	add    eax,0x1591c
    26b1:	c7 45 fc 00 00 00 00 	mov    DWORD PTR [ebp-0x4],0x0
    26b8:	eb 0f                	jmp    26c9 <__gmon_start__@plt+0x2201>
    26ba:	87 d2                	xchg   edx,edx
    26bc:	87 ff                	xchg   edi,edi
    26be:	87 c9                	xchg   ecx,ecx
    26c0:	87 ff                	xchg   edi,edi
    26c2:	90                   	nop
    26c3:	87 ff                	xchg   edi,edi
    26c5:	83 45 fc 01          	add    DWORD PTR [ebp-0x4],0x1
    26c9:	83 7d fc 02          	cmp    DWORD PTR [ebp-0x4],0x2
    26cd:	7e eb                	jle    26ba <__gmon_start__@plt+0x21f2>
    26cf:	90                   	nop
    26d0:	c9                   	leave  
    26d1:	c3                   	ret    
    26d2:	55                   	push   ebp
    26d3:	89 e5                	mov    ebp,esp
    26d5:	83 ec 10             	sub    esp,0x10
    26d8:	e8 04 e1 ff ff       	call   7e1 <__gmon_start__@plt+0x319>
    26dd:	05 eb 58 01 00       	add    eax,0x158eb
    26e2:	c7 45 fc 00 00 00 00 	mov    DWORD PTR [ebp-0x4],0x0
    26e9:	eb 0f                	jmp    26fa <__gmon_start__@plt+0x2232>
    26eb:	87 c9                	xchg   ecx,ecx
    26ed:	90                   	nop
    26ee:	87 db                	xchg   ebx,ebx
    26f0:	87 db                	xchg   ebx,ebx
    26f2:	87 db                	xchg   ebx,ebx
    26f4:	87 f6                	xchg   esi,esi
    26f6:	83 45 fc 01          	add    DWORD PTR [ebp-0x4],0x1
    26fa:	83 7d fc 08          	cmp    DWORD PTR [ebp-0x4],0x8
    26fe:	7e eb                	jle    26eb <__gmon_start__@plt+0x2223>
    2700:	90                   	nop
    2701:	c9                   	leave  
    2702:	c3                   	ret    
    2703:	55                   	push   ebp
    2704:	89 e5                	mov    ebp,esp
    2706:	83 ec 10             	sub    esp,0x10
    2709:	e8 d3 e0 ff ff       	call   7e1 <__gmon_start__@plt+0x319>
    270e:	05 ba 58 01 00       	add    eax,0x158ba
    2713:	c7 45 fc 00 00 00 00 	mov    DWORD PTR [ebp-0x4],0x0
    271a:	eb 13                	jmp    272f <__gmon_start__@plt+0x2267>
    271c:	87 ff                	xchg   edi,edi
    271e:	90                   	nop
    271f:	87 d2                	xchg   edx,edx
    2721:	87 c9                	xchg   ecx,ecx
    2723:	87 ff                	xchg   edi,edi
    2725:	87 db                	xchg   ebx,ebx
    2727:	87 d2                	xchg   edx,edx
    2729:	87 d2                	xchg   edx,edx
    272b:	83 45 fc 01          	add    DWORD PTR [ebp-0x4],0x1
    272f:	83 7d fc 05          	cmp    DWORD PTR [ebp-0x4],0x5
    2733:	7e e7                	jle    271c <__gmon_start__@plt+0x2254>
    2735:	90                   	nop
    2736:	c9                   	leave  
    2737:	c3                   	ret    
    2738:	55                   	push   ebp
    2739:	89 e5                	mov    ebp,esp
    273b:	83 ec 10             	sub    esp,0x10
    273e:	e8 9e e0 ff ff       	call   7e1 <__gmon_start__@plt+0x319>
    2743:	05 85 58 01 00       	add    eax,0x15885
    2748:	c7 45 fc 00 00 00 00 	mov    DWORD PTR [ebp-0x4],0x0
    274f:	eb 12                	jmp    2763 <__gmon_start__@plt+0x229b>
    2751:	87 d2                	xchg   edx,edx
    2753:	87 d2                	xchg   edx,edx
    2755:	87 c9                	xchg   ecx,ecx
    2757:	87 db                	xchg   ebx,ebx
    2759:	87 f6                	xchg   esi,esi
    275b:	87 f6                	xchg   esi,esi
    275d:	87 d2                	xchg   edx,edx
    275f:	83 45 fc 01          	add    DWORD PTR [ebp-0x4],0x1
    2763:	83 7d fc 11          	cmp    DWORD PTR [ebp-0x4],0x11
    2767:	7e e8                	jle    2751 <__gmon_start__@plt+0x2289>
    2769:	90                   	nop
    276a:	c9                   	leave  
    276b:	c3                   	ret    
    276c:	55                   	push   ebp
    276d:	89 e5                	mov    ebp,esp
    276f:	83 ec 10             	sub    esp,0x10
    2772:	e8 6a e0 ff ff       	call   7e1 <__gmon_start__@plt+0x319>
    2777:	05 51 58 01 00       	add    eax,0x15851
    277c:	c7 45 fc 00 00 00 00 	mov    DWORD PTR [ebp-0x4],0x0
    2783:	eb 08                	jmp    278d <__gmon_start__@plt+0x22c5>
    2785:	87 ff                	xchg   edi,edi
    2787:	87 db                	xchg   ebx,ebx
    2789:	83 45 fc 01          	add    DWORD PTR [ebp-0x4],0x1
    278d:	83 7d fc 0a          	cmp    DWORD PTR [ebp-0x4],0xa
    2791:	7e f2                	jle    2785 <__gmon_start__@plt+0x22bd>
    2793:	90                   	nop
    2794:	c9                   	leave  
    2795:	c3                   	ret    
    2796:	55                   	push   ebp
    2797:	89 e5                	mov    ebp,esp
    2799:	83 ec 10             	sub    esp,0x10
    279c:	e8 40 e0 ff ff       	call   7e1 <__gmon_start__@plt+0x319>
    27a1:	05 27 58 01 00       	add    eax,0x15827
    27a6:	c7 45 fc 00 00 00 00 	mov    DWORD PTR [ebp-0x4],0x0
    27ad:	eb 12                	jmp    27c1 <__gmon_start__@plt+0x22f9>
    27af:	90                   	nop
    27b0:	90                   	nop
    27b1:	90                   	nop
    27b2:	87 c9                	xchg   ecx,ecx
    27b4:	90                   	nop
    27b5:	87 d2                	xchg   edx,edx
    27b7:	87 d2                	xchg   edx,edx
    27b9:	87 c9                	xchg   ecx,ecx
    27bb:	87 db                	xchg   ebx,ebx
    27bd:	83 45 fc 01          	add    DWORD PTR [ebp-0x4],0x1
    27c1:	83 7d fc 12          	cmp    DWORD PTR [ebp-0x4],0x12
    27c5:	7e e8                	jle    27af <__gmon_start__@plt+0x22e7>
    27c7:	90                   	nop
    27c8:	c9                   	leave  
    27c9:	c3                   	ret    
    27ca:	55                   	push   ebp
    27cb:	89 e5                	mov    ebp,esp
    27cd:	83 ec 10             	sub    esp,0x10
    27d0:	e8 0c e0 ff ff       	call   7e1 <__gmon_start__@plt+0x319>
    27d5:	05 f3 57 01 00       	add    eax,0x157f3
    27da:	c7 45 fc 00 00 00 00 	mov    DWORD PTR [ebp-0x4],0x0
    27e1:	eb 07                	jmp    27ea <__gmon_start__@plt+0x2322>
    27e3:	87 db                	xchg   ebx,ebx
    27e5:	90                   	nop
    27e6:	83 45 fc 01          	add    DWORD PTR [ebp-0x4],0x1
    27ea:	83 7d fc 0c          	cmp    DWORD PTR [ebp-0x4],0xc
    27ee:	7e f3                	jle    27e3 <__gmon_start__@plt+0x231b>
    27f0:	90                   	nop
    27f1:	c9                   	leave  
    27f2:	c3                   	ret    
    27f3:	55                   	push   ebp
    27f4:	89 e5                	mov    ebp,esp
    27f6:	83 ec 10             	sub    esp,0x10
    27f9:	e8 e3 df ff ff       	call   7e1 <__gmon_start__@plt+0x319>
    27fe:	05 ca 57 01 00       	add    eax,0x157ca
    2803:	c7 45 fc 00 00 00 00 	mov    DWORD PTR [ebp-0x4],0x0
    280a:	eb 10                	jmp    281c <__gmon_start__@plt+0x2354>
    280c:	90                   	nop
    280d:	87 ff                	xchg   edi,edi
    280f:	87 d2                	xchg   edx,edx
    2811:	87 db                	xchg   ebx,ebx
    2813:	90                   	nop
    2814:	90                   	nop
    2815:	87 db                	xchg   ebx,ebx
    2817:	90                   	nop
    2818:	83 45 fc 01          	add    DWORD PTR [ebp-0x4],0x1
    281c:	83 7d fc 0e          	cmp    DWORD PTR [ebp-0x4],0xe
    2820:	7e ea                	jle    280c <__gmon_start__@plt+0x2344>
    2822:	90                   	nop
    2823:	c9                   	leave  
    2824:	c3                   	ret    
    2825:	55                   	push   ebp
    2826:	89 e5                	mov    ebp,esp
    2828:	83 ec 10             	sub    esp,0x10
    282b:	e8 b1 df ff ff       	call   7e1 <__gmon_start__@plt+0x319>
    2830:	05 98 57 01 00       	add    eax,0x15798
    2835:	c7 45 fc 00 00 00 00 	mov    DWORD PTR [ebp-0x4],0x0
    283c:	eb 0a                	jmp    2848 <__gmon_start__@plt+0x2380>
    283e:	87 ff                	xchg   edi,edi
    2840:	87 ff                	xchg   edi,edi
    2842:	87 db                	xchg   ebx,ebx
    2844:	83 45 fc 01          	add    DWORD PTR [ebp-0x4],0x1
    2848:	83 7d fc 0b          	cmp    DWORD PTR [ebp-0x4],0xb
    284c:	7e f0                	jle    283e <__gmon_start__@plt+0x2376>
    284e:	90                   	nop
    284f:	c9                   	leave  
    2850:	c3                   	ret    
    2851:	55                   	push   ebp
    2852:	89 e5                	mov    ebp,esp
    2854:	83 ec 10             	sub    esp,0x10
    2857:	e8 85 df ff ff       	call   7e1 <__gmon_start__@plt+0x319>
    285c:	05 6c 57 01 00       	add    eax,0x1576c
    2861:	c7 45 fc 00 00 00 00 	mov    DWORD PTR [ebp-0x4],0x0
    2868:	eb 13                	jmp    287d <__gmon_start__@plt+0x23b5>
    286a:	87 ff                	xchg   edi,edi
    286c:	87 d2                	xchg   edx,edx
    286e:	87 d2                	xchg   edx,edx
    2870:	87 ff                	xchg   edi,edi
    2872:	90                   	nop
    2873:	87 ff                	xchg   edi,edi
    2875:	87 f6                	xchg   esi,esi
    2877:	87 f6                	xchg   esi,esi
    2879:	83 45 fc 01          	add    DWORD PTR [ebp-0x4],0x1
    287d:	83 7d fc 02          	cmp    DWORD PTR [ebp-0x4],0x2
    2881:	7e e7                	jle    286a <__gmon_start__@plt+0x23a2>
    2883:	90                   	nop
    2884:	c9                   	leave  
    2885:	c3                   	ret    
    2886:	55                   	push   ebp
    2887:	89 e5                	mov    ebp,esp
    2889:	83 ec 10             	sub    esp,0x10
    288c:	e8 50 df ff ff       	call   7e1 <__gmon_start__@plt+0x319>
    2891:	05 37 57 01 00       	add    eax,0x15737
    2896:	c7 45 fc 00 00 00 00 	mov    DWORD PTR [ebp-0x4],0x0
    289d:	eb 0f                	jmp    28ae <__gmon_start__@plt+0x23e6>
    289f:	90                   	nop
    28a0:	87 ff                	xchg   edi,edi
    28a2:	90                   	nop
    28a3:	87 c9                	xchg   ecx,ecx
    28a5:	90                   	nop
    28a6:	87 f6                	xchg   esi,esi
    28a8:	87 c9                	xchg   ecx,ecx
    28aa:	83 45 fc 01          	add    DWORD PTR [ebp-0x4],0x1
    28ae:	83 7d fc 0a          	cmp    DWORD PTR [ebp-0x4],0xa
    28b2:	7e eb                	jle    289f <__gmon_start__@plt+0x23d7>
    28b4:	90                   	nop
    28b5:	c9                   	leave  
    28b6:	c3                   	ret    
    28b7:	55                   	push   ebp
    28b8:	89 e5                	mov    ebp,esp
    28ba:	83 ec 10             	sub    esp,0x10
    28bd:	e8 1f df ff ff       	call   7e1 <__gmon_start__@plt+0x319>
    28c2:	05 06 57 01 00       	add    eax,0x15706
    28c7:	c7 45 fc 00 00 00 00 	mov    DWORD PTR [ebp-0x4],0x0
    28ce:	eb 16                	jmp    28e6 <__gmon_start__@plt+0x241e>
    28d0:	90                   	nop
    28d1:	87 ff                	xchg   edi,edi
    28d3:	90                   	nop
    28d4:	87 d2                	xchg   edx,edx
    28d6:	87 d2                	xchg   edx,edx
    28d8:	87 ff                	xchg   edi,edi
    28da:	87 f6                	xchg   esi,esi
    28dc:	87 d2                	xchg   edx,edx
    28de:	87 c9                	xchg   ecx,ecx
    28e0:	87 c9                	xchg   ecx,ecx
    28e2:	83 45 fc 01          	add    DWORD PTR [ebp-0x4],0x1
    28e6:	83 7d fc 02          	cmp    DWORD PTR [ebp-0x4],0x2
    28ea:	7e e4                	jle    28d0 <__gmon_start__@plt+0x2408>
    28ec:	90                   	nop
    28ed:	c9                   	leave  
    28ee:	c3                   	ret    
    28ef:	55                   	push   ebp
    28f0:	89 e5                	mov    ebp,esp
    28f2:	83 ec 10             	sub    esp,0x10
    28f5:	e8 e7 de ff ff       	call   7e1 <__gmon_start__@plt+0x319>
    28fa:	05 ce 56 01 00       	add    eax,0x156ce
    28ff:	c7 45 fc 00 00 00 00 	mov    DWORD PTR [ebp-0x4],0x0
    2906:	eb 0c                	jmp    2914 <__gmon_start__@plt+0x244c>
    2908:	90                   	nop
    2909:	87 d2                	xchg   edx,edx
    290b:	87 f6                	xchg   esi,esi
    290d:	87 c9                	xchg   ecx,ecx
    290f:	90                   	nop
    2910:	83 45 fc 01          	add    DWORD PTR [ebp-0x4],0x1
    2914:	83 7d fc 05          	cmp    DWORD PTR [ebp-0x4],0x5
    2918:	7e ee                	jle    2908 <__gmon_start__@plt+0x2440>
    291a:	90                   	nop
    291b:	c9                   	leave  
    291c:	c3                   	ret    
    291d:	55                   	push   ebp
    291e:	89 e5                	mov    ebp,esp
    2920:	83 ec 10             	sub    esp,0x10
    2923:	e8 b9 de ff ff       	call   7e1 <__gmon_start__@plt+0x319>
    2928:	05 a0 56 01 00       	add    eax,0x156a0
    292d:	c7 45 fc 00 00 00 00 	mov    DWORD PTR [ebp-0x4],0x0
    2934:	eb 0b                	jmp    2941 <__gmon_start__@plt+0x2479>
    2936:	90                   	nop
    2937:	87 ff                	xchg   edi,edi
    2939:	87 f6                	xchg   esi,esi
    293b:	87 ff                	xchg   edi,edi
    293d:	83 45 fc 01          	add    DWORD PTR [ebp-0x4],0x1
    2941:	83 7d fc 02          	cmp    DWORD PTR [ebp-0x4],0x2
    2945:	7e ef                	jle    2936 <__gmon_start__@plt+0x246e>
    2947:	90                   	nop
    2948:	c9                   	leave  
    2949:	c3                   	ret    
    294a:	55                   	push   ebp
    294b:	89 e5                	mov    ebp,esp
    294d:	83 ec 10             	sub    esp,0x10
    2950:	e8 8c de ff ff       	call   7e1 <__gmon_start__@plt+0x319>
    2955:	05 73 56 01 00       	add    eax,0x15673
    295a:	c7 45 fc 00 00 00 00 	mov    DWORD PTR [ebp-0x4],0x0
    2961:	eb 09                	jmp    296c <__gmon_start__@plt+0x24a4>
    2963:	90                   	nop
    2964:	87 c9                	xchg   ecx,ecx
    2966:	87 ff                	xchg   edi,edi
    2968:	83 45 fc 01          	add    DWORD PTR [ebp-0x4],0x1
    296c:	83 7d fc 02          	cmp    DWORD PTR [ebp-0x4],0x2
    2970:	7e f1                	jle    2963 <__gmon_start__@plt+0x249b>
    2972:	90                   	nop
    2973:	c9                   	leave  
    2974:	c3                   	ret    
    2975:	55                   	push   ebp
    2976:	89 e5                	mov    ebp,esp
    2978:	83 ec 10             	sub    esp,0x10
    297b:	e8 61 de ff ff       	call   7e1 <__gmon_start__@plt+0x319>
    2980:	05 48 56 01 00       	add    eax,0x15648
    2985:	c7 45 fc 00 00 00 00 	mov    DWORD PTR [ebp-0x4],0x0
    298c:	eb 14                	jmp    29a2 <__gmon_start__@plt+0x24da>
    298e:	90                   	nop
    298f:	90                   	nop
    2990:	90                   	nop
    2991:	90                   	nop
    2992:	87 db                	xchg   ebx,ebx
    2994:	90                   	nop
    2995:	87 d2                	xchg   edx,edx
    2997:	87 f6                	xchg   esi,esi
    2999:	87 d2                	xchg   edx,edx
    299b:	87 d2                	xchg   edx,edx
    299d:	90                   	nop
    299e:	83 45 fc 01          	add    DWORD PTR [ebp-0x4],0x1
    29a2:	83 7d fc 03          	cmp    DWORD PTR [ebp-0x4],0x3
    29a6:	7e e6                	jle    298e <__gmon_start__@plt+0x24c6>
    29a8:	90                   	nop
    29a9:	c9                   	leave  
    29aa:	c3                   	ret    
    29ab:	55                   	push   ebp
    29ac:	89 e5                	mov    ebp,esp
    29ae:	83 ec 10             	sub    esp,0x10
    29b1:	e8 2b de ff ff       	call   7e1 <__gmon_start__@plt+0x319>
    29b6:	05 12 56 01 00       	add    eax,0x15612
    29bb:	c7 45 fc 00 00 00 00 	mov    DWORD PTR [ebp-0x4],0x0
    29c2:	eb 18                	jmp    29dc <__gmon_start__@plt+0x2514>
    29c4:	90                   	nop
    29c5:	87 d2                	xchg   edx,edx
    29c7:	87 db                	xchg   ebx,ebx
    29c9:	87 c9                	xchg   ecx,ecx
    29cb:	87 f6                	xchg   esi,esi
    29cd:	87 db                	xchg   ebx,ebx
    29cf:	87 ff                	xchg   edi,edi
    29d1:	87 db                	xchg   ebx,ebx
    29d3:	87 db                	xchg   ebx,ebx
    29d5:	90                   	nop
    29d6:	87 d2                	xchg   edx,edx
    29d8:	83 45 fc 01          	add    DWORD PTR [ebp-0x4],0x1
    29dc:	83 7d fc 07          	cmp    DWORD PTR [ebp-0x4],0x7
    29e0:	7e e2                	jle    29c4 <__gmon_start__@plt+0x24fc>
    29e2:	90                   	nop
    29e3:	c9                   	leave  
    29e4:	c3                   	ret    
    29e5:	55                   	push   ebp
    29e6:	89 e5                	mov    ebp,esp
    29e8:	83 ec 10             	sub    esp,0x10
    29eb:	e8 f1 dd ff ff       	call   7e1 <__gmon_start__@plt+0x319>
    29f0:	05 d8 55 01 00       	add    eax,0x155d8
    29f5:	c7 45 fc 00 00 00 00 	mov    DWORD PTR [ebp-0x4],0x0
    29fc:	eb 16                	jmp    2a14 <__gmon_start__@plt+0x254c>
    29fe:	87 c9                	xchg   ecx,ecx
    2a00:	87 d2                	xchg   edx,edx
    2a02:	87 db                	xchg   ebx,ebx
    2a04:	87 db                	xchg   ebx,ebx
    2a06:	90                   	nop
    2a07:	87 db                	xchg   ebx,ebx
    2a09:	87 ff                	xchg   edi,edi
    2a0b:	87 c9                	xchg   ecx,ecx
    2a0d:	90                   	nop
    2a0e:	87 db                	xchg   ebx,ebx
    2a10:	83 45 fc 01          	add    DWORD PTR [ebp-0x4],0x1
    2a14:	83 7d fc 01          	cmp    DWORD PTR [ebp-0x4],0x1
    2a18:	7e e4                	jle    29fe <__gmon_start__@plt+0x2536>
    2a1a:	90                   	nop
    2a1b:	c9                   	leave  
    2a1c:	c3                   	ret    
    2a1d:	55                   	push   ebp
    2a1e:	89 e5                	mov    ebp,esp
    2a20:	83 ec 10             	sub    esp,0x10
    2a23:	e8 b9 dd ff ff       	call   7e1 <__gmon_start__@plt+0x319>
    2a28:	05 a0 55 01 00       	add    eax,0x155a0
    2a2d:	c7 45 fc 00 00 00 00 	mov    DWORD PTR [ebp-0x4],0x0
    2a34:	eb 07                	jmp    2a3d <__gmon_start__@plt+0x2575>
    2a36:	87 c9                	xchg   ecx,ecx
    2a38:	90                   	nop
    2a39:	83 45 fc 01          	add    DWORD PTR [ebp-0x4],0x1
    2a3d:	83 7d fc 0e          	cmp    DWORD PTR [ebp-0x4],0xe
    2a41:	7e f3                	jle    2a36 <__gmon_start__@plt+0x256e>
    2a43:	90                   	nop
    2a44:	c9                   	leave  
    2a45:	c3                   	ret    
    2a46:	55                   	push   ebp
    2a47:	89 e5                	mov    ebp,esp
    2a49:	83 ec 10             	sub    esp,0x10
    2a4c:	e8 90 dd ff ff       	call   7e1 <__gmon_start__@plt+0x319>
    2a51:	05 77 55 01 00       	add    eax,0x15577
    2a56:	c7 45 fc 00 00 00 00 	mov    DWORD PTR [ebp-0x4],0x0
    2a5d:	eb 07                	jmp    2a66 <__gmon_start__@plt+0x259e>
    2a5f:	90                   	nop
    2a60:	87 db                	xchg   ebx,ebx
    2a62:	83 45 fc 01          	add    DWORD PTR [ebp-0x4],0x1
    2a66:	83 7d fc 01          	cmp    DWORD PTR [ebp-0x4],0x1
    2a6a:	7e f3                	jle    2a5f <__gmon_start__@plt+0x2597>
    2a6c:	90                   	nop
    2a6d:	c9                   	leave  
    2a6e:	c3                   	ret    
    2a6f:	55                   	push   ebp
    2a70:	89 e5                	mov    ebp,esp
    2a72:	83 ec 10             	sub    esp,0x10
    2a75:	e8 67 dd ff ff       	call   7e1 <__gmon_start__@plt+0x319>
    2a7a:	05 4e 55 01 00       	add    eax,0x1554e
    2a7f:	c7 45 fc 00 00 00 00 	mov    DWORD PTR [ebp-0x4],0x0
    2a86:	eb 05                	jmp    2a8d <__gmon_start__@plt+0x25c5>
    2a88:	90                   	nop
    2a89:	83 45 fc 01          	add    DWORD PTR [ebp-0x4],0x1
    2a8d:	83 7d fc 0c          	cmp    DWORD PTR [ebp-0x4],0xc
    2a91:	7e f5                	jle    2a88 <__gmon_start__@plt+0x25c0>
    2a93:	90                   	nop
    2a94:	c9                   	leave  
    2a95:	c3                   	ret    
    2a96:	55                   	push   ebp
    2a97:	89 e5                	mov    ebp,esp
    2a99:	83 ec 10             	sub    esp,0x10
    2a9c:	e8 40 dd ff ff       	call   7e1 <__gmon_start__@plt+0x319>
    2aa1:	05 27 55 01 00       	add    eax,0x15527
    2aa6:	c7 45 fc 00 00 00 00 	mov    DWORD PTR [ebp-0x4],0x0
    2aad:	eb 14                	jmp    2ac3 <__gmon_start__@plt+0x25fb>
    2aaf:	87 c9                	xchg   ecx,ecx
    2ab1:	87 db                	xchg   ebx,ebx
    2ab3:	87 ff                	xchg   edi,edi
    2ab5:	87 d2                	xchg   edx,edx
    2ab7:	87 f6                	xchg   esi,esi
    2ab9:	90                   	nop
    2aba:	90                   	nop
    2abb:	87 db                	xchg   ebx,ebx
    2abd:	87 d2                	xchg   edx,edx
    2abf:	83 45 fc 01          	add    DWORD PTR [ebp-0x4],0x1
    2ac3:	83 7d fc 04          	cmp    DWORD PTR [ebp-0x4],0x4
    2ac7:	7e e6                	jle    2aaf <__gmon_start__@plt+0x25e7>
    2ac9:	90                   	nop
    2aca:	c9                   	leave  
    2acb:	c3                   	ret    
    2acc:	55                   	push   ebp
    2acd:	89 e5                	mov    ebp,esp
    2acf:	83 ec 10             	sub    esp,0x10
    2ad2:	e8 0a dd ff ff       	call   7e1 <__gmon_start__@plt+0x319>
    2ad7:	05 f1 54 01 00       	add    eax,0x154f1
    2adc:	c7 45 fc 00 00 00 00 	mov    DWORD PTR [ebp-0x4],0x0
    2ae3:	eb 09                	jmp    2aee <__gmon_start__@plt+0x2626>
    2ae5:	87 d2                	xchg   edx,edx
    2ae7:	90                   	nop
    2ae8:	87 ff                	xchg   edi,edi
    2aea:	83 45 fc 01          	add    DWORD PTR [ebp-0x4],0x1
    2aee:	83 7d fc 0a          	cmp    DWORD PTR [ebp-0x4],0xa
    2af2:	7e f1                	jle    2ae5 <__gmon_start__@plt+0x261d>
    2af4:	90                   	nop
    2af5:	c9                   	leave  
    2af6:	c3                   	ret    
    2af7:	55                   	push   ebp
    2af8:	89 e5                	mov    ebp,esp
    2afa:	83 ec 10             	sub    esp,0x10
    2afd:	e8 df dc ff ff       	call   7e1 <__gmon_start__@plt+0x319>
    2b02:	05 c6 54 01 00       	add    eax,0x154c6
    2b07:	c7 45 fc 00 00 00 00 	mov    DWORD PTR [ebp-0x4],0x0
    2b0e:	eb 10                	jmp    2b20 <__gmon_start__@plt+0x2658>
    2b10:	90                   	nop
    2b11:	87 f6                	xchg   esi,esi
    2b13:	87 ff                	xchg   edi,edi
    2b15:	87 f6                	xchg   esi,esi
    2b17:	90                   	nop
    2b18:	87 ff                	xchg   edi,edi
    2b1a:	87 c9                	xchg   ecx,ecx
    2b1c:	83 45 fc 01          	add    DWORD PTR [ebp-0x4],0x1
    2b20:	83 7d fc 10          	cmp    DWORD PTR [ebp-0x4],0x10
    2b24:	7e ea                	jle    2b10 <__gmon_start__@plt+0x2648>
    2b26:	90                   	nop
    2b27:	c9                   	leave  
    2b28:	c3                   	ret    
    2b29:	55                   	push   ebp
    2b2a:	89 e5                	mov    ebp,esp
    2b2c:	83 ec 10             	sub    esp,0x10
    2b2f:	e8 ad dc ff ff       	call   7e1 <__gmon_start__@plt+0x319>
    2b34:	05 94 54 01 00       	add    eax,0x15494
    2b39:	c7 45 fc 00 00 00 00 	mov    DWORD PTR [ebp-0x4],0x0
    2b40:	eb 0c                	jmp    2b4e <__gmon_start__@plt+0x2686>
    2b42:	90                   	nop
    2b43:	87 ff                	xchg   edi,edi
    2b45:	90                   	nop
    2b46:	87 f6                	xchg   esi,esi
    2b48:	87 ff                	xchg   edi,edi
    2b4a:	83 45 fc 01          	add    DWORD PTR [ebp-0x4],0x1
    2b4e:	83 7d fc 04          	cmp    DWORD PTR [ebp-0x4],0x4
    2b52:	7e ee                	jle    2b42 <__gmon_start__@plt+0x267a>
    2b54:	90                   	nop
    2b55:	c9                   	leave  
    2b56:	c3                   	ret    
    2b57:	55                   	push   ebp
    2b58:	89 e5                	mov    ebp,esp
    2b5a:	83 ec 10             	sub    esp,0x10
    2b5d:	e8 7f dc ff ff       	call   7e1 <__gmon_start__@plt+0x319>
    2b62:	05 66 54 01 00       	add    eax,0x15466
    2b67:	c7 45 fc 00 00 00 00 	mov    DWORD PTR [ebp-0x4],0x0
    2b6e:	eb 0d                	jmp    2b7d <__gmon_start__@plt+0x26b5>
    2b70:	90                   	nop
    2b71:	87 ff                	xchg   edi,edi
    2b73:	87 d2                	xchg   edx,edx
    2b75:	87 d2                	xchg   edx,edx
    2b77:	87 d2                	xchg   edx,edx
    2b79:	83 45 fc 01          	add    DWORD PTR [ebp-0x4],0x1
    2b7d:	83 7d fc 03          	cmp    DWORD PTR [ebp-0x4],0x3
    2b81:	7e ed                	jle    2b70 <__gmon_start__@plt+0x26a8>
    2b83:	90                   	nop
    2b84:	c9                   	leave  
    2b85:	c3                   	ret    
    2b86:	55                   	push   ebp
    2b87:	89 e5                	mov    ebp,esp
    2b89:	83 ec 10             	sub    esp,0x10
    2b8c:	e8 50 dc ff ff       	call   7e1 <__gmon_start__@plt+0x319>
    2b91:	05 37 54 01 00       	add    eax,0x15437
    2b96:	c7 45 fc 00 00 00 00 	mov    DWORD PTR [ebp-0x4],0x0
    2b9d:	eb 15                	jmp    2bb4 <__gmon_start__@plt+0x26ec>
    2b9f:	87 d2                	xchg   edx,edx
    2ba1:	87 ff                	xchg   edi,edi
    2ba3:	87 d2                	xchg   edx,edx
    2ba5:	87 db                	xchg   ebx,ebx
    2ba7:	87 d2                	xchg   edx,edx
    2ba9:	90                   	nop
    2baa:	87 ff                	xchg   edi,edi
    2bac:	87 d2                	xchg   edx,edx
    2bae:	87 d2                	xchg   edx,edx
    2bb0:	83 45 fc 01          	add    DWORD PTR [ebp-0x4],0x1
    2bb4:	83 7d fc 09          	cmp    DWORD PTR [ebp-0x4],0x9
    2bb8:	7e e5                	jle    2b9f <__gmon_start__@plt+0x26d7>
    2bba:	90                   	nop
    2bbb:	c9                   	leave  
    2bbc:	c3                   	ret    
    2bbd:	55                   	push   ebp
    2bbe:	89 e5                	mov    ebp,esp
    2bc0:	83 ec 10             	sub    esp,0x10
    2bc3:	e8 19 dc ff ff       	call   7e1 <__gmon_start__@plt+0x319>
    2bc8:	05 00 54 01 00       	add    eax,0x15400
    2bcd:	c7 45 fc 00 00 00 00 	mov    DWORD PTR [ebp-0x4],0x0
    2bd4:	eb 16                	jmp    2bec <__gmon_start__@plt+0x2724>
    2bd6:	87 db                	xchg   ebx,ebx
    2bd8:	90                   	nop
    2bd9:	87 ff                	xchg   edi,edi
    2bdb:	87 c9                	xchg   ecx,ecx
    2bdd:	87 c9                	xchg   ecx,ecx
    2bdf:	90                   	nop
    2be0:	90                   	nop
    2be1:	87 ff                	xchg   edi,edi
    2be3:	90                   	nop
    2be4:	87 f6                	xchg   esi,esi
    2be6:	87 db                	xchg   ebx,ebx
    2be8:	83 45 fc 01          	add    DWORD PTR [ebp-0x4],0x1
    2bec:	83 7d fc 00          	cmp    DWORD PTR [ebp-0x4],0x0
    2bf0:	7e e4                	jle    2bd6 <__gmon_start__@plt+0x270e>
    2bf2:	90                   	nop
    2bf3:	c9                   	leave  
    2bf4:	c3                   	ret    
    2bf5:	55                   	push   ebp
    2bf6:	89 e5                	mov    ebp,esp
    2bf8:	83 ec 10             	sub    esp,0x10
    2bfb:	e8 e1 db ff ff       	call   7e1 <__gmon_start__@plt+0x319>
    2c00:	05 c8 53 01 00       	add    eax,0x153c8
    2c05:	c7 45 fc 00 00 00 00 	mov    DWORD PTR [ebp-0x4],0x0
    2c0c:	eb 14                	jmp    2c22 <__gmon_start__@plt+0x275a>
    2c0e:	90                   	nop
    2c0f:	90                   	nop
    2c10:	87 ff                	xchg   edi,edi
    2c12:	87 f6                	xchg   esi,esi
    2c14:	90                   	nop
    2c15:	87 d2                	xchg   edx,edx
    2c17:	90                   	nop
    2c18:	87 ff                	xchg   edi,edi
    2c1a:	87 d2                	xchg   edx,edx
    2c1c:	87 db                	xchg   ebx,ebx
    2c1e:	83 45 fc 01          	add    DWORD PTR [ebp-0x4],0x1
    2c22:	83 7d fc 0b          	cmp    DWORD PTR [ebp-0x4],0xb
    2c26:	7e e6                	jle    2c0e <__gmon_start__@plt+0x2746>
    2c28:	90                   	nop
    2c29:	c9                   	leave  
    2c2a:	c3                   	ret    
    2c2b:	55                   	push   ebp
    2c2c:	89 e5                	mov    ebp,esp
    2c2e:	83 ec 10             	sub    esp,0x10
    2c31:	e8 ab db ff ff       	call   7e1 <__gmon_start__@plt+0x319>
    2c36:	05 92 53 01 00       	add    eax,0x15392
    2c3b:	c7 45 fc 00 00 00 00 	mov    DWORD PTR [ebp-0x4],0x0
    2c42:	eb 0c                	jmp    2c50 <__gmon_start__@plt+0x2788>
    2c44:	87 d2                	xchg   edx,edx
    2c46:	87 d2                	xchg   edx,edx
    2c48:	87 ff                	xchg   edi,edi
    2c4a:	90                   	nop
    2c4b:	90                   	nop
    2c4c:	83 45 fc 01          	add    DWORD PTR [ebp-0x4],0x1
    2c50:	83 7d fc 0d          	cmp    DWORD PTR [ebp-0x4],0xd
    2c54:	7e ee                	jle    2c44 <__gmon_start__@plt+0x277c>
    2c56:	90                   	nop
    2c57:	c9                   	leave  
    2c58:	c3                   	ret    
    2c59:	55                   	push   ebp
    2c5a:	89 e5                	mov    ebp,esp
    2c5c:	83 ec 10             	sub    esp,0x10
    2c5f:	e8 7d db ff ff       	call   7e1 <__gmon_start__@plt+0x319>
    2c64:	05 64 53 01 00       	add    eax,0x15364
    2c69:	c7 45 fc 00 00 00 00 	mov    DWORD PTR [ebp-0x4],0x0
    2c70:	eb 13                	jmp    2c85 <__gmon_start__@plt+0x27bd>
    2c72:	87 f6                	xchg   esi,esi
    2c74:	87 d2                	xchg   edx,edx
    2c76:	90                   	nop
    2c77:	87 c9                	xchg   ecx,ecx
    2c79:	87 ff                	xchg   edi,edi
    2c7b:	87 d2                	xchg   edx,edx
    2c7d:	87 f6                	xchg   esi,esi
    2c7f:	87 db                	xchg   ebx,ebx
    2c81:	83 45 fc 01          	add    DWORD PTR [ebp-0x4],0x1
    2c85:	83 7d fc 09          	cmp    DWORD PTR [ebp-0x4],0x9
    2c89:	7e e7                	jle    2c72 <__gmon_start__@plt+0x27aa>
    2c8b:	90                   	nop
    2c8c:	c9                   	leave  
    2c8d:	c3                   	ret    
    2c8e:	55                   	push   ebp
    2c8f:	89 e5                	mov    ebp,esp
    2c91:	83 ec 10             	sub    esp,0x10
    2c94:	e8 48 db ff ff       	call   7e1 <__gmon_start__@plt+0x319>
    2c99:	05 2f 53 01 00       	add    eax,0x1532f
    2c9e:	c7 45 fc 00 00 00 00 	mov    DWORD PTR [ebp-0x4],0x0
    2ca5:	eb 0f                	jmp    2cb6 <__gmon_start__@plt+0x27ee>
    2ca7:	90                   	nop
    2ca8:	90                   	nop
    2ca9:	87 ff                	xchg   edi,edi
    2cab:	87 db                	xchg   ebx,ebx
    2cad:	90                   	nop
    2cae:	90                   	nop
    2caf:	90                   	nop
    2cb0:	87 d2                	xchg   edx,edx
    2cb2:	83 45 fc 01          	add    DWORD PTR [ebp-0x4],0x1
    2cb6:	83 7d fc 13          	cmp    DWORD PTR [ebp-0x4],0x13
    2cba:	7e eb                	jle    2ca7 <__gmon_start__@plt+0x27df>
    2cbc:	90                   	nop
    2cbd:	c9                   	leave  
    2cbe:	c3                   	ret    
    2cbf:	55                   	push   ebp
    2cc0:	89 e5                	mov    ebp,esp
    2cc2:	83 ec 10             	sub    esp,0x10
    2cc5:	e8 17 db ff ff       	call   7e1 <__gmon_start__@plt+0x319>
    2cca:	05 fe 52 01 00       	add    eax,0x152fe
    2ccf:	c7 45 fc 00 00 00 00 	mov    DWORD PTR [ebp-0x4],0x0
    2cd6:	eb 17                	jmp    2cef <__gmon_start__@plt+0x2827>
    2cd8:	90                   	nop
    2cd9:	87 f6                	xchg   esi,esi
    2cdb:	87 c9                	xchg   ecx,ecx
    2cdd:	90                   	nop
    2cde:	87 f6                	xchg   esi,esi
    2ce0:	90                   	nop
    2ce1:	87 c9                	xchg   ecx,ecx
    2ce3:	87 d2                	xchg   edx,edx
    2ce5:	87 db                	xchg   ebx,ebx
    2ce7:	87 d2                	xchg   edx,edx
    2ce9:	87 d2                	xchg   edx,edx
    2ceb:	83 45 fc 01          	add    DWORD PTR [ebp-0x4],0x1
    2cef:	83 7d fc 0f          	cmp    DWORD PTR [ebp-0x4],0xf
    2cf3:	7e e3                	jle    2cd8 <__gmon_start__@plt+0x2810>
    2cf5:	90                   	nop
    2cf6:	c9                   	leave  
    2cf7:	c3                   	ret    
    2cf8:	55                   	push   ebp
    2cf9:	89 e5                	mov    ebp,esp
    2cfb:	83 ec 10             	sub    esp,0x10
    2cfe:	e8 de da ff ff       	call   7e1 <__gmon_start__@plt+0x319>
    2d03:	05 c5 52 01 00       	add    eax,0x152c5
    2d08:	c7 45 fc 00 00 00 00 	mov    DWORD PTR [ebp-0x4],0x0
    2d0f:	eb 06                	jmp    2d17 <__gmon_start__@plt+0x284f>
    2d11:	87 d2                	xchg   edx,edx
    2d13:	83 45 fc 01          	add    DWORD PTR [ebp-0x4],0x1
    2d17:	83 7d fc 10          	cmp    DWORD PTR [ebp-0x4],0x10
    2d1b:	7e f4                	jle    2d11 <__gmon_start__@plt+0x2849>
    2d1d:	90                   	nop
    2d1e:	c9                   	leave  
    2d1f:	c3                   	ret    
    2d20:	55                   	push   ebp
    2d21:	89 e5                	mov    ebp,esp
    2d23:	83 ec 10             	sub    esp,0x10
    2d26:	e8 b6 da ff ff       	call   7e1 <__gmon_start__@plt+0x319>
    2d2b:	05 9d 52 01 00       	add    eax,0x1529d
    2d30:	c7 45 fc 00 00 00 00 	mov    DWORD PTR [ebp-0x4],0x0
    2d37:	eb 13                	jmp    2d4c <__gmon_start__@plt+0x2884>
    2d39:	90                   	nop
    2d3a:	90                   	nop
    2d3b:	87 ff                	xchg   edi,edi
    2d3d:	87 c9                	xchg   ecx,ecx
    2d3f:	87 f6                	xchg   esi,esi
    2d41:	90                   	nop
    2d42:	90                   	nop
    2d43:	87 d2                	xchg   edx,edx
    2d45:	90                   	nop
    2d46:	87 f6                	xchg   esi,esi
    2d48:	83 45 fc 01          	add    DWORD PTR [ebp-0x4],0x1
    2d4c:	83 7d fc 0b          	cmp    DWORD PTR [ebp-0x4],0xb
    2d50:	7e e7                	jle    2d39 <__gmon_start__@plt+0x2871>
    2d52:	90                   	nop
    2d53:	c9                   	leave  
    2d54:	c3                   	ret    
    2d55:	55                   	push   ebp
    2d56:	89 e5                	mov    ebp,esp
    2d58:	83 ec 10             	sub    esp,0x10
    2d5b:	e8 81 da ff ff       	call   7e1 <__gmon_start__@plt+0x319>
    2d60:	05 68 52 01 00       	add    eax,0x15268
    2d65:	c7 45 fc 00 00 00 00 	mov    DWORD PTR [ebp-0x4],0x0
    2d6c:	eb 0e                	jmp    2d7c <__gmon_start__@plt+0x28b4>
    2d6e:	90                   	nop
    2d6f:	87 c9                	xchg   ecx,ecx
    2d71:	87 ff                	xchg   edi,edi
    2d73:	87 db                	xchg   ebx,ebx
    2d75:	87 d2                	xchg   edx,edx
    2d77:	90                   	nop
    2d78:	83 45 fc 01          	add    DWORD PTR [ebp-0x4],0x1
    2d7c:	83 7d fc 09          	cmp    DWORD PTR [ebp-0x4],0x9
    2d80:	7e ec                	jle    2d6e <__gmon_start__@plt+0x28a6>
    2d82:	90                   	nop
    2d83:	c9                   	leave  
    2d84:	c3                   	ret    
    2d85:	55                   	push   ebp
    2d86:	89 e5                	mov    ebp,esp
    2d88:	83 ec 10             	sub    esp,0x10
    2d8b:	e8 51 da ff ff       	call   7e1 <__gmon_start__@plt+0x319>
    2d90:	05 38 52 01 00       	add    eax,0x15238
    2d95:	c7 45 fc 00 00 00 00 	mov    DWORD PTR [ebp-0x4],0x0
    2d9c:	eb 15                	jmp    2db3 <__gmon_start__@plt+0x28eb>
    2d9e:	87 d2                	xchg   edx,edx
    2da0:	87 db                	xchg   ebx,ebx
    2da2:	90                   	nop
    2da3:	87 f6                	xchg   esi,esi
    2da5:	90                   	nop
    2da6:	87 f6                	xchg   esi,esi
    2da8:	87 db                	xchg   ebx,ebx
    2daa:	87 f6                	xchg   esi,esi
    2dac:	90                   	nop
    2dad:	90                   	nop
    2dae:	90                   	nop
    2daf:	83 45 fc 01          	add    DWORD PTR [ebp-0x4],0x1
    2db3:	83 7d fc 02          	cmp    DWORD PTR [ebp-0x4],0x2
    2db7:	7e e5                	jle    2d9e <__gmon_start__@plt+0x28d6>
    2db9:	90                   	nop
    2dba:	c9                   	leave  
    2dbb:	c3                   	ret    
    2dbc:	55                   	push   ebp
    2dbd:	89 e5                	mov    ebp,esp
    2dbf:	83 ec 10             	sub    esp,0x10
    2dc2:	e8 1a da ff ff       	call   7e1 <__gmon_start__@plt+0x319>
    2dc7:	05 01 52 01 00       	add    eax,0x15201
    2dcc:	c7 45 fc 00 00 00 00 	mov    DWORD PTR [ebp-0x4],0x0
    2dd3:	eb 0f                	jmp    2de4 <__gmon_start__@plt+0x291c>
    2dd5:	90                   	nop
    2dd6:	90                   	nop
    2dd7:	87 f6                	xchg   esi,esi
    2dd9:	90                   	nop
    2dda:	87 d2                	xchg   edx,edx
    2ddc:	87 ff                	xchg   edi,edi
    2dde:	87 db                	xchg   ebx,ebx
    2de0:	83 45 fc 01          	add    DWORD PTR [ebp-0x4],0x1
    2de4:	83 7d fc 13          	cmp    DWORD PTR [ebp-0x4],0x13
    2de8:	7e eb                	jle    2dd5 <__gmon_start__@plt+0x290d>
    2dea:	90                   	nop
    2deb:	c9                   	leave  
    2dec:	c3                   	ret    
    2ded:	55                   	push   ebp
    2dee:	89 e5                	mov    ebp,esp
    2df0:	83 ec 10             	sub    esp,0x10
    2df3:	e8 e9 d9 ff ff       	call   7e1 <__gmon_start__@plt+0x319>
    2df8:	05 d0 51 01 00       	add    eax,0x151d0
    2dfd:	c7 45 fc 00 00 00 00 	mov    DWORD PTR [ebp-0x4],0x0
    2e04:	eb 0f                	jmp    2e15 <__gmon_start__@plt+0x294d>
    2e06:	90                   	nop
    2e07:	87 d2                	xchg   edx,edx
    2e09:	90                   	nop
    2e0a:	87 c9                	xchg   ecx,ecx
    2e0c:	87 ff                	xchg   edi,edi
    2e0e:	90                   	nop
    2e0f:	87 f6                	xchg   esi,esi
    2e11:	83 45 fc 01          	add    DWORD PTR [ebp-0x4],0x1
    2e15:	83 7d fc 14          	cmp    DWORD PTR [ebp-0x4],0x14
    2e19:	7e eb                	jle    2e06 <__gmon_start__@plt+0x293e>
    2e1b:	90                   	nop
    2e1c:	c9                   	leave  
    2e1d:	c3                   	ret    
    2e1e:	55                   	push   ebp
    2e1f:	89 e5                	mov    ebp,esp
    2e21:	83 ec 10             	sub    esp,0x10
    2e24:	e8 b8 d9 ff ff       	call   7e1 <__gmon_start__@plt+0x319>
    2e29:	05 9f 51 01 00       	add    eax,0x1519f
    2e2e:	c7 45 fc 00 00 00 00 	mov    DWORD PTR [ebp-0x4],0x0
    2e35:	eb 16                	jmp    2e4d <__gmon_start__@plt+0x2985>
    2e37:	87 f6                	xchg   esi,esi
    2e39:	90                   	nop
    2e3a:	87 f6                	xchg   esi,esi
    2e3c:	87 db                	xchg   ebx,ebx
    2e3e:	87 ff                	xchg   edi,edi
    2e40:	87 c9                	xchg   ecx,ecx
    2e42:	87 f6                	xchg   esi,esi
    2e44:	87 c9                	xchg   ecx,ecx
    2e46:	87 c9                	xchg   ecx,ecx
    2e48:	90                   	nop
    2e49:	83 45 fc 01          	add    DWORD PTR [ebp-0x4],0x1
    2e4d:	83 7d fc 10          	cmp    DWORD PTR [ebp-0x4],0x10
    2e51:	7e e4                	jle    2e37 <__gmon_start__@plt+0x296f>
    2e53:	90                   	nop
    2e54:	c9                   	leave  
    2e55:	c3                   	ret    
    2e56:	55                   	push   ebp
    2e57:	89 e5                	mov    ebp,esp
    2e59:	83 ec 10             	sub    esp,0x10
    2e5c:	e8 80 d9 ff ff       	call   7e1 <__gmon_start__@plt+0x319>
    2e61:	05 67 51 01 00       	add    eax,0x15167
    2e66:	c7 45 fc 00 00 00 00 	mov    DWORD PTR [ebp-0x4],0x0
    2e6d:	eb 08                	jmp    2e77 <__gmon_start__@plt+0x29af>
    2e6f:	87 c9                	xchg   ecx,ecx
    2e71:	87 d2                	xchg   edx,edx
    2e73:	83 45 fc 01          	add    DWORD PTR [ebp-0x4],0x1
    2e77:	83 7d fc 01          	cmp    DWORD PTR [ebp-0x4],0x1
    2e7b:	7e f2                	jle    2e6f <__gmon_start__@plt+0x29a7>
    2e7d:	90                   	nop
    2e7e:	c9                   	leave  
    2e7f:	c3                   	ret    
    2e80:	55                   	push   ebp
    2e81:	89 e5                	mov    ebp,esp
    2e83:	83 ec 10             	sub    esp,0x10
    2e86:	e8 56 d9 ff ff       	call   7e1 <__gmon_start__@plt+0x319>
    2e8b:	05 3d 51 01 00       	add    eax,0x1513d
    2e90:	c7 45 fc 00 00 00 00 	mov    DWORD PTR [ebp-0x4],0x0
    2e97:	eb 0b                	jmp    2ea4 <__gmon_start__@plt+0x29dc>
    2e99:	87 db                	xchg   ebx,ebx
    2e9b:	87 db                	xchg   ebx,ebx
    2e9d:	90                   	nop
    2e9e:	87 db                	xchg   ebx,ebx
    2ea0:	83 45 fc 01          	add    DWORD PTR [ebp-0x4],0x1
    2ea4:	83 7d fc 02          	cmp    DWORD PTR [ebp-0x4],0x2
    2ea8:	7e ef                	jle    2e99 <__gmon_start__@plt+0x29d1>
    2eaa:	90                   	nop
    2eab:	c9                   	leave  
    2eac:	c3                   	ret    
    2ead:	55                   	push   ebp
    2eae:	89 e5                	mov    ebp,esp
    2eb0:	83 ec 10             	sub    esp,0x10
    2eb3:	e8 29 d9 ff ff       	call   7e1 <__gmon_start__@plt+0x319>
    2eb8:	05 10 51 01 00       	add    eax,0x15110
    2ebd:	c7 45 fc 00 00 00 00 	mov    DWORD PTR [ebp-0x4],0x0
    2ec4:	eb 0b                	jmp    2ed1 <__gmon_start__@plt+0x2a09>
    2ec6:	90                   	nop
    2ec7:	87 db                	xchg   ebx,ebx
    2ec9:	87 db                	xchg   ebx,ebx
    2ecb:	87 d2                	xchg   edx,edx
    2ecd:	83 45 fc 01          	add    DWORD PTR [ebp-0x4],0x1
    2ed1:	83 7d fc 09          	cmp    DWORD PTR [ebp-0x4],0x9
    2ed5:	7e ef                	jle    2ec6 <__gmon_start__@plt+0x29fe>
    2ed7:	90                   	nop
    2ed8:	c9                   	leave  
    2ed9:	c3                   	ret    
    2eda:	55                   	push   ebp
    2edb:	89 e5                	mov    ebp,esp
    2edd:	83 ec 10             	sub    esp,0x10
    2ee0:	e8 fc d8 ff ff       	call   7e1 <__gmon_start__@plt+0x319>
    2ee5:	05 e3 50 01 00       	add    eax,0x150e3
    2eea:	c7 45 fc 00 00 00 00 	mov    DWORD PTR [ebp-0x4],0x0
    2ef1:	eb 0d                	jmp    2f00 <__gmon_start__@plt+0x2a38>
    2ef3:	90                   	nop
    2ef4:	90                   	nop
    2ef5:	87 f6                	xchg   esi,esi
    2ef7:	87 c9                	xchg   ecx,ecx
    2ef9:	90                   	nop
    2efa:	87 ff                	xchg   edi,edi
    2efc:	83 45 fc 01          	add    DWORD PTR [ebp-0x4],0x1
    2f00:	83 7d fc 14          	cmp    DWORD PTR [ebp-0x4],0x14
    2f04:	7e ed                	jle    2ef3 <__gmon_start__@plt+0x2a2b>
    2f06:	90                   	nop
    2f07:	c9                   	leave  
    2f08:	c3                   	ret    
    2f09:	55                   	push   ebp
    2f0a:	89 e5                	mov    ebp,esp
    2f0c:	83 ec 10             	sub    esp,0x10
    2f0f:	e8 cd d8 ff ff       	call   7e1 <__gmon_start__@plt+0x319>
    2f14:	05 b4 50 01 00       	add    eax,0x150b4
    2f19:	c7 45 fc 00 00 00 00 	mov    DWORD PTR [ebp-0x4],0x0
    2f20:	eb 17                	jmp    2f39 <__gmon_start__@plt+0x2a71>
    2f22:	87 f6                	xchg   esi,esi
    2f24:	87 db                	xchg   ebx,ebx
    2f26:	87 db                	xchg   ebx,ebx
    2f28:	87 ff                	xchg   edi,edi
    2f2a:	87 d2                	xchg   edx,edx
    2f2c:	87 c9                	xchg   ecx,ecx
    2f2e:	87 db                	xchg   ebx,ebx
    2f30:	87 d2                	xchg   edx,edx
    2f32:	87 ff                	xchg   edi,edi
    2f34:	90                   	nop
    2f35:	83 45 fc 01          	add    DWORD PTR [ebp-0x4],0x1
    2f39:	83 7d fc 0d          	cmp    DWORD PTR [ebp-0x4],0xd
    2f3d:	7e e3                	jle    2f22 <__gmon_start__@plt+0x2a5a>
    2f3f:	90                   	nop
    2f40:	c9                   	leave  
    2f41:	c3                   	ret    
    2f42:	55                   	push   ebp
    2f43:	89 e5                	mov    ebp,esp
    2f45:	83 ec 10             	sub    esp,0x10
    2f48:	e8 94 d8 ff ff       	call   7e1 <__gmon_start__@plt+0x319>
    2f4d:	05 7b 50 01 00       	add    eax,0x1507b
    2f52:	c7 45 fc 00 00 00 00 	mov    DWORD PTR [ebp-0x4],0x0
    2f59:	eb 19                	jmp    2f74 <__gmon_start__@plt+0x2aac>
    2f5b:	87 f6                	xchg   esi,esi
    2f5d:	87 c9                	xchg   ecx,ecx
    2f5f:	87 c9                	xchg   ecx,ecx
    2f61:	87 d2                	xchg   edx,edx
    2f63:	87 c9                	xchg   ecx,ecx
    2f65:	87 f6                	xchg   esi,esi
    2f67:	87 f6                	xchg   esi,esi
    2f69:	87 d2                	xchg   edx,edx
    2f6b:	90                   	nop
    2f6c:	87 ff                	xchg   edi,edi
    2f6e:	87 f6                	xchg   esi,esi
    2f70:	83 45 fc 01          	add    DWORD PTR [ebp-0x4],0x1
    2f74:	83 7d fc 04          	cmp    DWORD PTR [ebp-0x4],0x4
    2f78:	7e e1                	jle    2f5b <__gmon_start__@plt+0x2a93>
    2f7a:	90                   	nop
    2f7b:	c9                   	leave  
    2f7c:	c3                   	ret    
    2f7d:	55                   	push   ebp
    2f7e:	89 e5                	mov    ebp,esp
    2f80:	83 ec 10             	sub    esp,0x10
    2f83:	e8 59 d8 ff ff       	call   7e1 <__gmon_start__@plt+0x319>
    2f88:	05 40 50 01 00       	add    eax,0x15040
    2f8d:	c7 45 fc 00 00 00 00 	mov    DWORD PTR [ebp-0x4],0x0
    2f94:	eb 0c                	jmp    2fa2 <__gmon_start__@plt+0x2ada>
    2f96:	90                   	nop
    2f97:	90                   	nop
    2f98:	90                   	nop
    2f99:	87 ff                	xchg   edi,edi
    2f9b:	87 db                	xchg   ebx,ebx
    2f9d:	90                   	nop
    2f9e:	83 45 fc 01          	add    DWORD PTR [ebp-0x4],0x1
    2fa2:	83 7d fc 02          	cmp    DWORD PTR [ebp-0x4],0x2
    2fa6:	7e ee                	jle    2f96 <__gmon_start__@plt+0x2ace>
    2fa8:	90                   	nop
    2fa9:	c9                   	leave  
    2faa:	c3                   	ret    
    2fab:	55                   	push   ebp
    2fac:	89 e5                	mov    ebp,esp
    2fae:	83 ec 10             	sub    esp,0x10
    2fb1:	e8 2b d8 ff ff       	call   7e1 <__gmon_start__@plt+0x319>
    2fb6:	05 12 50 01 00       	add    eax,0x15012
    2fbb:	c7 45 fc 00 00 00 00 	mov    DWORD PTR [ebp-0x4],0x0
    2fc2:	eb 10                	jmp    2fd4 <__gmon_start__@plt+0x2b0c>
    2fc4:	90                   	nop
    2fc5:	87 db                	xchg   ebx,ebx
    2fc7:	90                   	nop
    2fc8:	90                   	nop
    2fc9:	87 db                	xchg   ebx,ebx
    2fcb:	87 d2                	xchg   edx,edx
    2fcd:	87 f6                	xchg   esi,esi
    2fcf:	90                   	nop
    2fd0:	83 45 fc 01          	add    DWORD PTR [ebp-0x4],0x1
    2fd4:	83 7d fc 0a          	cmp    DWORD PTR [ebp-0x4],0xa
    2fd8:	7e ea                	jle    2fc4 <__gmon_start__@plt+0x2afc>
    2fda:	90                   	nop
    2fdb:	c9                   	leave  
    2fdc:	c3                   	ret    
    2fdd:	55                   	push   ebp
    2fde:	89 e5                	mov    ebp,esp
    2fe0:	83 ec 10             	sub    esp,0x10
    2fe3:	e8 f9 d7 ff ff       	call   7e1 <__gmon_start__@plt+0x319>
    2fe8:	05 e0 4f 01 00       	add    eax,0x14fe0
    2fed:	c7 45 fc 00 00 00 00 	mov    DWORD PTR [ebp-0x4],0x0
    2ff4:	eb 14                	jmp    300a <__gmon_start__@plt+0x2b42>
    2ff6:	90                   	nop
    2ff7:	90                   	nop
    2ff8:	87 f6                	xchg   esi,esi
    2ffa:	90                   	nop
    2ffb:	87 db                	xchg   ebx,ebx
    2ffd:	87 c9                	xchg   ecx,ecx
    2fff:	87 f6                	xchg   esi,esi
    3001:	87 c9                	xchg   ecx,ecx
    3003:	87 ff                	xchg   edi,edi
    3005:	90                   	nop
    3006:	83 45 fc 01          	add    DWORD PTR [ebp-0x4],0x1
    300a:	83 7d fc 05          	cmp    DWORD PTR [ebp-0x4],0x5
    300e:	7e e6                	jle    2ff6 <__gmon_start__@plt+0x2b2e>
    3010:	90                   	nop
    3011:	c9                   	leave  
    3012:	c3                   	ret    
    3013:	55                   	push   ebp
    3014:	89 e5                	mov    ebp,esp
    3016:	83 ec 10             	sub    esp,0x10
    3019:	e8 c3 d7 ff ff       	call   7e1 <__gmon_start__@plt+0x319>
    301e:	05 aa 4f 01 00       	add    eax,0x14faa
    3023:	c7 45 fc 00 00 00 00 	mov    DWORD PTR [ebp-0x4],0x0
    302a:	eb 17                	jmp    3043 <__gmon_start__@plt+0x2b7b>
    302c:	87 f6                	xchg   esi,esi
    302e:	87 ff                	xchg   edi,edi
    3030:	87 c9                	xchg   ecx,ecx
    3032:	87 f6                	xchg   esi,esi
    3034:	87 c9                	xchg   ecx,ecx
    3036:	87 f6                	xchg   esi,esi
    3038:	87 d2                	xchg   edx,edx
    303a:	90                   	nop
    303b:	87 ff                	xchg   edi,edi
    303d:	87 c9                	xchg   ecx,ecx
    303f:	83 45 fc 01          	add    DWORD PTR [ebp-0x4],0x1
    3043:	83 7d fc 01          	cmp    DWORD PTR [ebp-0x4],0x1
    3047:	7e e3                	jle    302c <__gmon_start__@plt+0x2b64>
    3049:	90                   	nop
    304a:	c9                   	leave  
    304b:	c3                   	ret    
    304c:	55                   	push   ebp
    304d:	89 e5                	mov    ebp,esp
    304f:	83 ec 10             	sub    esp,0x10
    3052:	e8 8a d7 ff ff       	call   7e1 <__gmon_start__@plt+0x319>
    3057:	05 71 4f 01 00       	add    eax,0x14f71
    305c:	c7 45 fc 00 00 00 00 	mov    DWORD PTR [ebp-0x4],0x0
    3063:	eb 0f                	jmp    3074 <__gmon_start__@plt+0x2bac>
    3065:	90                   	nop
    3066:	90                   	nop
    3067:	87 ff                	xchg   edi,edi
    3069:	90                   	nop
    306a:	90                   	nop
    306b:	87 f6                	xchg   esi,esi
    306d:	87 d2                	xchg   edx,edx
    306f:	90                   	nop
    3070:	83 45 fc 01          	add    DWORD PTR [ebp-0x4],0x1
    3074:	83 7d fc 11          	cmp    DWORD PTR [ebp-0x4],0x11
    3078:	7e eb                	jle    3065 <__gmon_start__@plt+0x2b9d>
    307a:	90                   	nop
    307b:	c9                   	leave  
    307c:	c3                   	ret    
    307d:	55                   	push   ebp
    307e:	89 e5                	mov    ebp,esp
    3080:	83 ec 10             	sub    esp,0x10
    3083:	e8 59 d7 ff ff       	call   7e1 <__gmon_start__@plt+0x319>
    3088:	05 40 4f 01 00       	add    eax,0x14f40
    308d:	c7 45 fc 00 00 00 00 	mov    DWORD PTR [ebp-0x4],0x0
    3094:	eb 13                	jmp    30a9 <__gmon_start__@plt+0x2be1>
    3096:	87 ff                	xchg   edi,edi
    3098:	87 d2                	xchg   edx,edx
    309a:	87 d2                	xchg   edx,edx
    309c:	87 db                	xchg   ebx,ebx
    309e:	87 f6                	xchg   esi,esi
    30a0:	87 db                	xchg   ebx,ebx
    30a2:	90                   	nop
    30a3:	87 d2                	xchg   edx,edx
    30a5:	83 45 fc 01          	add    DWORD PTR [ebp-0x4],0x1
    30a9:	83 7d fc 0d          	cmp    DWORD PTR [ebp-0x4],0xd
    30ad:	7e e7                	jle    3096 <__gmon_start__@plt+0x2bce>
    30af:	90                   	nop
    30b0:	c9                   	leave  
    30b1:	c3                   	ret    
    30b2:	55                   	push   ebp
    30b3:	89 e5                	mov    ebp,esp
    30b5:	83 ec 10             	sub    esp,0x10
    30b8:	e8 24 d7 ff ff       	call   7e1 <__gmon_start__@plt+0x319>
    30bd:	05 0b 4f 01 00       	add    eax,0x14f0b
    30c2:	c7 45 fc 00 00 00 00 	mov    DWORD PTR [ebp-0x4],0x0
    30c9:	eb 06                	jmp    30d1 <__gmon_start__@plt+0x2c09>
    30cb:	87 d2                	xchg   edx,edx
    30cd:	83 45 fc 01          	add    DWORD PTR [ebp-0x4],0x1
    30d1:	83 7d fc 07          	cmp    DWORD PTR [ebp-0x4],0x7
    30d5:	7e f4                	jle    30cb <__gmon_start__@plt+0x2c03>
    30d7:	90                   	nop
    30d8:	c9                   	leave  
    30d9:	c3                   	ret    
    30da:	55                   	push   ebp
    30db:	89 e5                	mov    ebp,esp
    30dd:	83 ec 10             	sub    esp,0x10
    30e0:	e8 fc d6 ff ff       	call   7e1 <__gmon_start__@plt+0x319>
    30e5:	05 e3 4e 01 00       	add    eax,0x14ee3
    30ea:	c7 45 fc 00 00 00 00 	mov    DWORD PTR [ebp-0x4],0x0
    30f1:	eb 13                	jmp    3106 <__gmon_start__@plt+0x2c3e>
    30f3:	90                   	nop
    30f4:	87 ff                	xchg   edi,edi
    30f6:	87 f6                	xchg   esi,esi
    30f8:	87 ff                	xchg   edi,edi
    30fa:	87 c9                	xchg   ecx,ecx
    30fc:	87 f6                	xchg   esi,esi
    30fe:	87 d2                	xchg   edx,edx
    3100:	87 c9                	xchg   ecx,ecx
    3102:	83 45 fc 01          	add    DWORD PTR [ebp-0x4],0x1
    3106:	83 7d fc 09          	cmp    DWORD PTR [ebp-0x4],0x9
    310a:	7e e7                	jle    30f3 <__gmon_start__@plt+0x2c2b>
    310c:	90                   	nop
    310d:	c9                   	leave  
    310e:	c3                   	ret    
    310f:	55                   	push   ebp
    3110:	89 e5                	mov    ebp,esp
    3112:	83 ec 10             	sub    esp,0x10
    3115:	e8 c7 d6 ff ff       	call   7e1 <__gmon_start__@plt+0x319>
    311a:	05 ae 4e 01 00       	add    eax,0x14eae
    311f:	c7 45 fc 00 00 00 00 	mov    DWORD PTR [ebp-0x4],0x0
    3126:	eb 06                	jmp    312e <__gmon_start__@plt+0x2c66>
    3128:	87 f6                	xchg   esi,esi
    312a:	83 45 fc 01          	add    DWORD PTR [ebp-0x4],0x1
    312e:	83 7d fc 06          	cmp    DWORD PTR [ebp-0x4],0x6
    3132:	7e f4                	jle    3128 <__gmon_start__@plt+0x2c60>
    3134:	90                   	nop
    3135:	c9                   	leave  
    3136:	c3                   	ret    
    3137:	55                   	push   ebp
    3138:	89 e5                	mov    ebp,esp
    313a:	83 ec 10             	sub    esp,0x10
    313d:	e8 9f d6 ff ff       	call   7e1 <__gmon_start__@plt+0x319>
    3142:	05 86 4e 01 00       	add    eax,0x14e86
    3147:	c7 45 fc 00 00 00 00 	mov    DWORD PTR [ebp-0x4],0x0
    314e:	eb 16                	jmp    3166 <__gmon_start__@plt+0x2c9e>
    3150:	87 ff                	xchg   edi,edi
    3152:	87 f6                	xchg   esi,esi
    3154:	87 db                	xchg   ebx,ebx
    3156:	87 f6                	xchg   esi,esi
    3158:	87 c9                	xchg   ecx,ecx
    315a:	87 d2                	xchg   edx,edx
    315c:	90                   	nop
    315d:	90                   	nop
    315e:	90                   	nop
    315f:	87 f6                	xchg   esi,esi
    3161:	90                   	nop
    3162:	83 45 fc 01          	add    DWORD PTR [ebp-0x4],0x1
    3166:	83 7d fc 09          	cmp    DWORD PTR [ebp-0x4],0x9
    316a:	7e e4                	jle    3150 <__gmon_start__@plt+0x2c88>
    316c:	90                   	nop
    316d:	c9                   	leave  
    316e:	c3                   	ret    
    316f:	55                   	push   ebp
    3170:	89 e5                	mov    ebp,esp
    3172:	83 ec 10             	sub    esp,0x10
    3175:	e8 67 d6 ff ff       	call   7e1 <__gmon_start__@plt+0x319>
    317a:	05 4e 4e 01 00       	add    eax,0x14e4e
    317f:	c7 45 fc 00 00 00 00 	mov    DWORD PTR [ebp-0x4],0x0
    3186:	eb 16                	jmp    319e <__gmon_start__@plt+0x2cd6>
    3188:	90                   	nop
    3189:	87 d2                	xchg   edx,edx
    318b:	87 d2                	xchg   edx,edx
    318d:	87 d2                	xchg   edx,edx
    318f:	87 d2                	xchg   edx,edx
    3191:	87 d2                	xchg   edx,edx
    3193:	87 ff                	xchg   edi,edi
    3195:	90                   	nop
    3196:	87 db                	xchg   ebx,ebx
    3198:	87 d2                	xchg   edx,edx
    319a:	83 45 fc 01          	add    DWORD PTR [ebp-0x4],0x1
    319e:	83 7d fc 06          	cmp    DWORD PTR [ebp-0x4],0x6
    31a2:	7e e4                	jle    3188 <__gmon_start__@plt+0x2cc0>
    31a4:	90                   	nop
    31a5:	c9                   	leave  
    31a6:	c3                   	ret    
    31a7:	55                   	push   ebp
    31a8:	89 e5                	mov    ebp,esp
    31aa:	83 ec 10             	sub    esp,0x10
    31ad:	e8 2f d6 ff ff       	call   7e1 <__gmon_start__@plt+0x319>
    31b2:	05 16 4e 01 00       	add    eax,0x14e16
    31b7:	c7 45 fc 00 00 00 00 	mov    DWORD PTR [ebp-0x4],0x0
    31be:	eb 05                	jmp    31c5 <__gmon_start__@plt+0x2cfd>
    31c0:	90                   	nop
    31c1:	83 45 fc 01          	add    DWORD PTR [ebp-0x4],0x1
    31c5:	83 7d fc 0b          	cmp    DWORD PTR [ebp-0x4],0xb
    31c9:	7e f5                	jle    31c0 <__gmon_start__@plt+0x2cf8>
    31cb:	90                   	nop
    31cc:	c9                   	leave  
    31cd:	c3                   	ret    
    31ce:	55                   	push   ebp
    31cf:	89 e5                	mov    ebp,esp
    31d1:	83 ec 10             	sub    esp,0x10
    31d4:	e8 08 d6 ff ff       	call   7e1 <__gmon_start__@plt+0x319>
    31d9:	05 ef 4d 01 00       	add    eax,0x14def
    31de:	c7 45 fc 00 00 00 00 	mov    DWORD PTR [ebp-0x4],0x0
    31e5:	eb 14                	jmp    31fb <__gmon_start__@plt+0x2d33>
    31e7:	87 ff                	xchg   edi,edi
    31e9:	87 d2                	xchg   edx,edx
    31eb:	87 d2                	xchg   edx,edx
    31ed:	90                   	nop
    31ee:	87 db                	xchg   ebx,ebx
    31f0:	87 db                	xchg   ebx,ebx
    31f2:	90                   	nop
    31f3:	90                   	nop
    31f4:	87 ff                	xchg   edi,edi
    31f6:	90                   	nop
    31f7:	83 45 fc 01          	add    DWORD PTR [ebp-0x4],0x1
    31fb:	83 7d fc 07          	cmp    DWORD PTR [ebp-0x4],0x7
    31ff:	7e e6                	jle    31e7 <__gmon_start__@plt+0x2d1f>
    3201:	90                   	nop
    3202:	c9                   	leave  
    3203:	c3                   	ret    
    3204:	55                   	push   ebp
    3205:	89 e5                	mov    ebp,esp
    3207:	83 ec 10             	sub    esp,0x10
    320a:	e8 d2 d5 ff ff       	call   7e1 <__gmon_start__@plt+0x319>
    320f:	05 b9 4d 01 00       	add    eax,0x14db9
    3214:	c7 45 fc 00 00 00 00 	mov    DWORD PTR [ebp-0x4],0x0
    321b:	eb 06                	jmp    3223 <__gmon_start__@plt+0x2d5b>
    321d:	87 ff                	xchg   edi,edi
    321f:	83 45 fc 01          	add    DWORD PTR [ebp-0x4],0x1
    3223:	83 7d fc 09          	cmp    DWORD PTR [ebp-0x4],0x9
    3227:	7e f4                	jle    321d <__gmon_start__@plt+0x2d55>
    3229:	90                   	nop
    322a:	c9                   	leave  
    322b:	c3                   	ret    
    322c:	55                   	push   ebp
    322d:	89 e5                	mov    ebp,esp
    322f:	83 ec 10             	sub    esp,0x10
    3232:	e8 aa d5 ff ff       	call   7e1 <__gmon_start__@plt+0x319>
    3237:	05 91 4d 01 00       	add    eax,0x14d91
    323c:	c7 45 fc 00 00 00 00 	mov    DWORD PTR [ebp-0x4],0x0
    3243:	eb 07                	jmp    324c <__gmon_start__@plt+0x2d84>
    3245:	87 f6                	xchg   esi,esi
    3247:	90                   	nop
    3248:	83 45 fc 01          	add    DWORD PTR [ebp-0x4],0x1
    324c:	83 7d fc 11          	cmp    DWORD PTR [ebp-0x4],0x11
    3250:	7e f3                	jle    3245 <__gmon_start__@plt+0x2d7d>
    3252:	90                   	nop
    3253:	c9                   	leave  
    3254:	c3                   	ret    
    3255:	55                   	push   ebp
    3256:	89 e5                	mov    ebp,esp
    3258:	83 ec 10             	sub    esp,0x10
    325b:	e8 81 d5 ff ff       	call   7e1 <__gmon_start__@plt+0x319>
    3260:	05 68 4d 01 00       	add    eax,0x14d68
    3265:	c7 45 fc 00 00 00 00 	mov    DWORD PTR [ebp-0x4],0x0
    326c:	eb 12                	jmp    3280 <__gmon_start__@plt+0x2db8>
    326e:	87 ff                	xchg   edi,edi
    3270:	87 d2                	xchg   edx,edx
    3272:	87 db                	xchg   ebx,ebx
    3274:	87 ff                	xchg   edi,edi
    3276:	90                   	nop
    3277:	87 ff                	xchg   edi,edi
    3279:	90                   	nop
    327a:	90                   	nop
    327b:	90                   	nop
    327c:	83 45 fc 01          	add    DWORD PTR [ebp-0x4],0x1
    3280:	83 7d fc 10          	cmp    DWORD PTR [ebp-0x4],0x10
    3284:	7e e8                	jle    326e <__gmon_start__@plt+0x2da6>
    3286:	90                   	nop
    3287:	c9                   	leave  
    3288:	c3                   	ret    
    3289:	55                   	push   ebp
    328a:	89 e5                	mov    ebp,esp
    328c:	83 ec 10             	sub    esp,0x10
    328f:	e8 4d d5 ff ff       	call   7e1 <__gmon_start__@plt+0x319>
    3294:	05 34 4d 01 00       	add    eax,0x14d34
    3299:	c7 45 fc 00 00 00 00 	mov    DWORD PTR [ebp-0x4],0x0
    32a0:	eb 12                	jmp    32b4 <__gmon_start__@plt+0x2dec>
    32a2:	87 ff                	xchg   edi,edi
    32a4:	87 d2                	xchg   edx,edx
    32a6:	90                   	nop
    32a7:	87 c9                	xchg   ecx,ecx
    32a9:	90                   	nop
    32aa:	87 ff                	xchg   edi,edi
    32ac:	87 ff                	xchg   edi,edi
    32ae:	87 f6                	xchg   esi,esi
    32b0:	83 45 fc 01          	add    DWORD PTR [ebp-0x4],0x1
    32b4:	83 7d fc 01          	cmp    DWORD PTR [ebp-0x4],0x1
    32b8:	7e e8                	jle    32a2 <__gmon_start__@plt+0x2dda>
    32ba:	90                   	nop
    32bb:	c9                   	leave  
    32bc:	c3                   	ret    
    32bd:	55                   	push   ebp
    32be:	89 e5                	mov    ebp,esp
    32c0:	83 ec 10             	sub    esp,0x10
    32c3:	e8 19 d5 ff ff       	call   7e1 <__gmon_start__@plt+0x319>
    32c8:	05 00 4d 01 00       	add    eax,0x14d00
    32cd:	c7 45 fc 00 00 00 00 	mov    DWORD PTR [ebp-0x4],0x0
    32d4:	eb 0a                	jmp    32e0 <__gmon_start__@plt+0x2e18>
    32d6:	87 ff                	xchg   edi,edi
    32d8:	87 db                	xchg   ebx,ebx
    32da:	87 c9                	xchg   ecx,ecx
    32dc:	83 45 fc 01          	add    DWORD PTR [ebp-0x4],0x1
    32e0:	83 7d fc 04          	cmp    DWORD PTR [ebp-0x4],0x4
    32e4:	7e f0                	jle    32d6 <__gmon_start__@plt+0x2e0e>
    32e6:	90                   	nop
    32e7:	c9                   	leave  
    32e8:	c3                   	ret    
    32e9:	55                   	push   ebp
    32ea:	89 e5                	mov    ebp,esp
    32ec:	83 ec 10             	sub    esp,0x10
    32ef:	e8 ed d4 ff ff       	call   7e1 <__gmon_start__@plt+0x319>
    32f4:	05 d4 4c 01 00       	add    eax,0x14cd4
    32f9:	c7 45 fc 00 00 00 00 	mov    DWORD PTR [ebp-0x4],0x0
    3300:	eb 06                	jmp    3308 <__gmon_start__@plt+0x2e40>
    3302:	87 f6                	xchg   esi,esi
    3304:	83 45 fc 01          	add    DWORD PTR [ebp-0x4],0x1
    3308:	83 7d fc 00          	cmp    DWORD PTR [ebp-0x4],0x0
    330c:	7e f4                	jle    3302 <__gmon_start__@plt+0x2e3a>
    330e:	90                   	nop
    330f:	c9                   	leave  
    3310:	c3                   	ret    
    3311:	55                   	push   ebp
    3312:	89 e5                	mov    ebp,esp
    3314:	83 ec 10             	sub    esp,0x10
    3317:	e8 c5 d4 ff ff       	call   7e1 <__gmon_start__@plt+0x319>
    331c:	05 ac 4c 01 00       	add    eax,0x14cac
    3321:	c7 45 fc 00 00 00 00 	mov    DWORD PTR [ebp-0x4],0x0
    3328:	eb 06                	jmp    3330 <__gmon_start__@plt+0x2e68>
    332a:	87 db                	xchg   ebx,ebx
    332c:	83 45 fc 01          	add    DWORD PTR [ebp-0x4],0x1
    3330:	83 7d fc 0f          	cmp    DWORD PTR [ebp-0x4],0xf
    3334:	7e f4                	jle    332a <__gmon_start__@plt+0x2e62>
    3336:	90                   	nop
    3337:	c9                   	leave  
    3338:	c3                   	ret    
    3339:	55                   	push   ebp
    333a:	89 e5                	mov    ebp,esp
    333c:	83 ec 10             	sub    esp,0x10
    333f:	e8 9d d4 ff ff       	call   7e1 <__gmon_start__@plt+0x319>
    3344:	05 84 4c 01 00       	add    eax,0x14c84
    3349:	c7 45 fc 00 00 00 00 	mov    DWORD PTR [ebp-0x4],0x0
    3350:	eb 11                	jmp    3363 <__gmon_start__@plt+0x2e9b>
    3352:	87 f6                	xchg   esi,esi
    3354:	90                   	nop
    3355:	87 d2                	xchg   edx,edx
    3357:	90                   	nop
    3358:	87 d2                	xchg   edx,edx
    335a:	87 c9                	xchg   ecx,ecx
    335c:	87 c9                	xchg   ecx,ecx
    335e:	90                   	nop
    335f:	83 45 fc 01          	add    DWORD PTR [ebp-0x4],0x1
    3363:	83 7d fc 01          	cmp    DWORD PTR [ebp-0x4],0x1
    3367:	7e e9                	jle    3352 <__gmon_start__@plt+0x2e8a>
    3369:	90                   	nop
    336a:	c9                   	leave  
    336b:	c3                   	ret    
    336c:	55                   	push   ebp
    336d:	89 e5                	mov    ebp,esp
    336f:	83 ec 10             	sub    esp,0x10
    3372:	e8 6a d4 ff ff       	call   7e1 <__gmon_start__@plt+0x319>
    3377:	05 51 4c 01 00       	add    eax,0x14c51
    337c:	c7 45 fc 00 00 00 00 	mov    DWORD PTR [ebp-0x4],0x0
    3383:	eb 05                	jmp    338a <__gmon_start__@plt+0x2ec2>
    3385:	90                   	nop
    3386:	83 45 fc 01          	add    DWORD PTR [ebp-0x4],0x1
    338a:	83 7d fc 09          	cmp    DWORD PTR [ebp-0x4],0x9
    338e:	7e f5                	jle    3385 <__gmon_start__@plt+0x2ebd>
    3390:	90                   	nop
    3391:	c9                   	leave  
    3392:	c3                   	ret    
    3393:	55                   	push   ebp
    3394:	89 e5                	mov    ebp,esp
    3396:	83 ec 10             	sub    esp,0x10
    3399:	e8 43 d4 ff ff       	call   7e1 <__gmon_start__@plt+0x319>
    339e:	05 2a 4c 01 00       	add    eax,0x14c2a
    33a3:	c7 45 fc 00 00 00 00 	mov    DWORD PTR [ebp-0x4],0x0
    33aa:	eb 09                	jmp    33b5 <__gmon_start__@plt+0x2eed>
    33ac:	87 db                	xchg   ebx,ebx
    33ae:	87 f6                	xchg   esi,esi
    33b0:	90                   	nop
    33b1:	83 45 fc 01          	add    DWORD PTR [ebp-0x4],0x1
    33b5:	83 7d fc 09          	cmp    DWORD PTR [ebp-0x4],0x9
    33b9:	7e f1                	jle    33ac <__gmon_start__@plt+0x2ee4>
    33bb:	90                   	nop
    33bc:	c9                   	leave  
    33bd:	c3                   	ret    
    33be:	55                   	push   ebp
    33bf:	89 e5                	mov    ebp,esp
    33c1:	83 ec 10             	sub    esp,0x10
    33c4:	e8 18 d4 ff ff       	call   7e1 <__gmon_start__@plt+0x319>
    33c9:	05 ff 4b 01 00       	add    eax,0x14bff
    33ce:	c7 45 fc 00 00 00 00 	mov    DWORD PTR [ebp-0x4],0x0
    33d5:	eb 08                	jmp    33df <__gmon_start__@plt+0x2f17>
    33d7:	87 f6                	xchg   esi,esi
    33d9:	87 ff                	xchg   edi,edi
    33db:	83 45 fc 01          	add    DWORD PTR [ebp-0x4],0x1
    33df:	83 7d fc 12          	cmp    DWORD PTR [ebp-0x4],0x12
    33e3:	7e f2                	jle    33d7 <__gmon_start__@plt+0x2f0f>
    33e5:	90                   	nop
    33e6:	c9                   	leave  
    33e7:	c3                   	ret    
    33e8:	55                   	push   ebp
    33e9:	89 e5                	mov    ebp,esp
    33eb:	83 ec 10             	sub    esp,0x10
    33ee:	e8 ee d3 ff ff       	call   7e1 <__gmon_start__@plt+0x319>
    33f3:	05 d5 4b 01 00       	add    eax,0x14bd5
    33f8:	c7 45 fc 00 00 00 00 	mov    DWORD PTR [ebp-0x4],0x0
    33ff:	eb 18                	jmp    3419 <__gmon_start__@plt+0x2f51>
    3401:	87 db                	xchg   ebx,ebx
    3403:	87 f6                	xchg   esi,esi
    3405:	90                   	nop
    3406:	87 d2                	xchg   edx,edx
    3408:	87 d2                	xchg   edx,edx
    340a:	87 db                	xchg   ebx,ebx
    340c:	87 d2                	xchg   edx,edx
    340e:	87 db                	xchg   ebx,ebx
    3410:	90                   	nop
    3411:	87 ff                	xchg   edi,edi
    3413:	87 d2                	xchg   edx,edx
    3415:	83 45 fc 01          	add    DWORD PTR [ebp-0x4],0x1
    3419:	83 7d fc 14          	cmp    DWORD PTR [ebp-0x4],0x14
    341d:	7e e2                	jle    3401 <__gmon_start__@plt+0x2f39>
    341f:	90                   	nop
    3420:	c9                   	leave  
    3421:	c3                   	ret    
    3422:	55                   	push   ebp
    3423:	89 e5                	mov    ebp,esp
    3425:	83 ec 10             	sub    esp,0x10
    3428:	e8 b4 d3 ff ff       	call   7e1 <__gmon_start__@plt+0x319>
    342d:	05 9b 4b 01 00       	add    eax,0x14b9b
    3432:	c7 45 fc 00 00 00 00 	mov    DWORD PTR [ebp-0x4],0x0
    3439:	eb 09                	jmp    3444 <__gmon_start__@plt+0x2f7c>
    343b:	87 d2                	xchg   edx,edx
    343d:	90                   	nop
    343e:	87 ff                	xchg   edi,edi
    3440:	83 45 fc 01          	add    DWORD PTR [ebp-0x4],0x1
    3444:	83 7d fc 05          	cmp    DWORD PTR [ebp-0x4],0x5
    3448:	7e f1                	jle    343b <__gmon_start__@plt+0x2f73>
    344a:	90                   	nop
    344b:	c9                   	leave  
    344c:	c3                   	ret    
    344d:	55                   	push   ebp
    344e:	89 e5                	mov    ebp,esp
    3450:	83 ec 10             	sub    esp,0x10
    3453:	e8 89 d3 ff ff       	call   7e1 <__gmon_start__@plt+0x319>
    3458:	05 70 4b 01 00       	add    eax,0x14b70
    345d:	c7 45 fc 00 00 00 00 	mov    DWORD PTR [ebp-0x4],0x0
    3464:	eb 09                	jmp    346f <__gmon_start__@plt+0x2fa7>
    3466:	90                   	nop
    3467:	87 ff                	xchg   edi,edi
    3469:	87 d2                	xchg   edx,edx
    346b:	83 45 fc 01          	add    DWORD PTR [ebp-0x4],0x1
    346f:	83 7d fc 03          	cmp    DWORD PTR [ebp-0x4],0x3
    3473:	7e f1                	jle    3466 <__gmon_start__@plt+0x2f9e>
    3475:	90                   	nop
    3476:	c9                   	leave  
    3477:	c3                   	ret    
    3478:	55                   	push   ebp
    3479:	89 e5                	mov    ebp,esp
    347b:	83 ec 10             	sub    esp,0x10
    347e:	e8 5e d3 ff ff       	call   7e1 <__gmon_start__@plt+0x319>
    3483:	05 45 4b 01 00       	add    eax,0x14b45
    3488:	c7 45 fc 00 00 00 00 	mov    DWORD PTR [ebp-0x4],0x0
    348f:	eb 0e                	jmp    349f <__gmon_start__@plt+0x2fd7>
    3491:	87 ff                	xchg   edi,edi
    3493:	87 f6                	xchg   esi,esi
    3495:	87 f6                	xchg   esi,esi
    3497:	87 d2                	xchg   edx,edx
    3499:	87 f6                	xchg   esi,esi
    349b:	83 45 fc 01          	add    DWORD PTR [ebp-0x4],0x1
    349f:	83 7d fc 08          	cmp    DWORD PTR [ebp-0x4],0x8
    34a3:	7e ec                	jle    3491 <__gmon_start__@plt+0x2fc9>
    34a5:	90                   	nop
    34a6:	c9                   	leave  
    34a7:	c3                   	ret    
    34a8:	55                   	push   ebp
    34a9:	89 e5                	mov    ebp,esp
    34ab:	83 ec 10             	sub    esp,0x10
    34ae:	e8 2e d3 ff ff       	call   7e1 <__gmon_start__@plt+0x319>
    34b3:	05 15 4b 01 00       	add    eax,0x14b15
    34b8:	c7 45 fc 00 00 00 00 	mov    DWORD PTR [ebp-0x4],0x0
    34bf:	eb 0e                	jmp    34cf <__gmon_start__@plt+0x3007>
    34c1:	87 d2                	xchg   edx,edx
    34c3:	87 db                	xchg   ebx,ebx
    34c5:	87 f6                	xchg   esi,esi
    34c7:	87 d2                	xchg   edx,edx
    34c9:	87 d2                	xchg   edx,edx
    34cb:	83 45 fc 01          	add    DWORD PTR [ebp-0x4],0x1
    34cf:	83 7d fc 03          	cmp    DWORD PTR [ebp-0x4],0x3
    34d3:	7e ec                	jle    34c1 <__gmon_start__@plt+0x2ff9>
    34d5:	90                   	nop
    34d6:	c9                   	leave  
    34d7:	c3                   	ret    
    34d8:	55                   	push   ebp
    34d9:	89 e5                	mov    ebp,esp
    34db:	83 ec 10             	sub    esp,0x10
    34de:	e8 fe d2 ff ff       	call   7e1 <__gmon_start__@plt+0x319>
    34e3:	05 e5 4a 01 00       	add    eax,0x14ae5
    34e8:	c7 45 fc 00 00 00 00 	mov    DWORD PTR [ebp-0x4],0x0
    34ef:	eb 07                	jmp    34f8 <__gmon_start__@plt+0x3030>
    34f1:	87 d2                	xchg   edx,edx
    34f3:	90                   	nop
    34f4:	83 45 fc 01          	add    DWORD PTR [ebp-0x4],0x1
    34f8:	83 7d fc 12          	cmp    DWORD PTR [ebp-0x4],0x12
    34fc:	7e f3                	jle    34f1 <__gmon_start__@plt+0x3029>
    34fe:	90                   	nop
    34ff:	c9                   	leave  
    3500:	c3                   	ret    
    3501:	55                   	push   ebp
    3502:	89 e5                	mov    ebp,esp
    3504:	83 ec 10             	sub    esp,0x10
    3507:	e8 d5 d2 ff ff       	call   7e1 <__gmon_start__@plt+0x319>
    350c:	05 bc 4a 01 00       	add    eax,0x14abc
    3511:	c7 45 fc 00 00 00 00 	mov    DWORD PTR [ebp-0x4],0x0
    3518:	eb 08                	jmp    3522 <__gmon_start__@plt+0x305a>
    351a:	87 d2                	xchg   edx,edx
    351c:	87 d2                	xchg   edx,edx
    351e:	83 45 fc 01          	add    DWORD PTR [ebp-0x4],0x1
    3522:	83 7d fc 0f          	cmp    DWORD PTR [ebp-0x4],0xf
    3526:	7e f2                	jle    351a <__gmon_start__@plt+0x3052>
    3528:	90                   	nop
    3529:	c9                   	leave  
    352a:	c3                   	ret    
    352b:	55                   	push   ebp
    352c:	89 e5                	mov    ebp,esp
    352e:	83 ec 10             	sub    esp,0x10
    3531:	e8 ab d2 ff ff       	call   7e1 <__gmon_start__@plt+0x319>
    3536:	05 92 4a 01 00       	add    eax,0x14a92
    353b:	c7 45 fc 00 00 00 00 	mov    DWORD PTR [ebp-0x4],0x0
    3542:	eb 14                	jmp    3558 <__gmon_start__@plt+0x3090>
    3544:	87 f6                	xchg   esi,esi
    3546:	87 c9                	xchg   ecx,ecx
    3548:	90                   	nop
    3549:	87 f6                	xchg   esi,esi
    354b:	87 ff                	xchg   edi,edi
    354d:	87 ff                	xchg   edi,edi
    354f:	87 db                	xchg   ebx,ebx
    3551:	87 ff                	xchg   edi,edi
    3553:	90                   	nop
    3554:	83 45 fc 01          	add    DWORD PTR [ebp-0x4],0x1
    3558:	83 7d fc 06          	cmp    DWORD PTR [ebp-0x4],0x6
    355c:	7e e6                	jle    3544 <__gmon_start__@plt+0x307c>
    355e:	90                   	nop
    355f:	c9                   	leave  
    3560:	c3                   	ret    
    3561:	55                   	push   ebp
    3562:	89 e5                	mov    ebp,esp
    3564:	83 ec 10             	sub    esp,0x10
    3567:	e8 75 d2 ff ff       	call   7e1 <__gmon_start__@plt+0x319>
    356c:	05 5c 4a 01 00       	add    eax,0x14a5c
